
bin3.exe:     file format pei-i386


Disassembly of section .text:

00411000 <.text>:
  411000:	cc                   	int3   
  411001:	cc                   	int3   
  411002:	cc                   	int3   
  411003:	cc                   	int3   
  411004:	cc                   	int3   
  411005:	e9 86 56 00 00       	jmp    0x416690
  41100a:	e9 31 fa 00 00       	jmp    0x420a40
  41100f:	e9 ec c4 00 00       	jmp    0x41d500
  411014:	e9 47 4e 00 00       	jmp    0x415e60
  411019:	e9 82 95 00 00       	jmp    0x41a5a0
  41101e:	e9 fd 54 00 00       	jmp    0x416520
  411023:	e9 38 6a 00 00       	jmp    0x417a60
  411028:	e9 23 74 00 00       	jmp    0x418450
  41102d:	e9 ce a4 00 00       	jmp    0x41b500
  411032:	e9 79 b3 00 00       	jmp    0x41c3b0
  411037:	e9 94 d6 00 00       	jmp    0x41e6d0
  41103c:	e9 9f 4f 00 00       	jmp    0x415fe0
  411041:	e9 aa 5f 00 00       	jmp    0x416ff0
  411046:	e9 d5 51 00 00       	jmp    0x416220
  41104b:	e9 36 d6 00 00       	jmp    0x41e686
  411050:	e9 8b 96 00 00       	jmp    0x41a6e0
  411055:	e9 a6 7f 00 00       	jmp    0x419000
  41105a:	e9 49 d8 00 00       	jmp    0x41e8a8
  41105f:	e9 3c 9f 00 00       	jmp    0x41afa0
  411064:	e9 97 cb 00 00       	jmp    0x41dc00
  411069:	e9 f2 c5 00 00       	jmp    0x41d660
  41106e:	e9 dd f1 00 00       	jmp    0x420250
  411073:	e9 7e db 00 00       	jmp    0x41ebf6
  411078:	e9 13 2e 00 00       	jmp    0x413e90
  41107d:	e9 6c d1 00 00       	jmp    0x41e1ee
  411082:	e9 59 4c 00 00       	jmp    0x415ce0
  411087:	e9 b4 40 00 00       	jmp    0x415140
  41108c:	e9 e1 02 01 00       	jmp    0x421372
  411091:	e9 5a ed 00 00       	jmp    0x41fdf0
  411096:	e9 05 a9 00 00       	jmp    0x41b9a0
  41109b:	e9 00 86 00 00       	jmp    0x4196a0
  4110a0:	e9 db 71 00 00       	jmp    0x418280
  4110a5:	e9 16 54 00 00       	jmp    0x4164c0
  4110aa:	e9 51 dd 00 00       	jmp    0x41ee00
  4110af:	e9 dc 02 01 00       	jmp    0x421390
  4110b4:	e9 17 d2 00 00       	jmp    0x41e2d0
  4110b9:	e9 22 73 00 00       	jmp    0x4183e0
  4110be:	e9 bb d7 00 00       	jmp    0x41e87e
  4110c3:	e9 78 48 00 00       	jmp    0x415940
  4110c8:	e9 c3 7d 00 00       	jmp    0x418e90
  4110cd:	e9 fe 3e 00 00       	jmp    0x414fd0
  4110d2:	e9 f9 99 00 00       	jmp    0x41aad0
  4110d7:	e9 57 d5 00 00       	jmp    0x41e633
  4110dc:	e9 4b d3 00 00       	jmp    0x41e42c
  4110e1:	e9 ca 78 00 00       	jmp    0x4189b0
  4110e6:	e9 db d7 00 00       	jmp    0x41e8c6
  4110eb:	e9 b0 dd 00 00       	jmp    0x41eea0
  4110f0:	e9 7b 43 00 00       	jmp    0x415470
  4110f5:	e9 46 52 00 00       	jmp    0x416340
  4110fa:	e9 15 d8 00 00       	jmp    0x41e914
  4110ff:	e9 bc 63 00 00       	jmp    0x4174c0
  411104:	e9 37 b4 00 00       	jmp    0x41c540
  411109:	e9 62 c7 00 00       	jmp    0x41d870
  41110e:	e9 6d 5b 00 00       	jmp    0x416c80
  411113:	e9 a8 28 00 00       	jmp    0x4139c0
  411118:	e9 e3 96 00 00       	jmp    0x41a800
  41111d:	e9 3e bb 00 00       	jmp    0x41cc60
  411122:	e9 89 69 00 00       	jmp    0x417ab0
  411127:	e9 76 d7 00 00       	jmp    0x41e8a2
  41112c:	e9 ff c7 00 00       	jmp    0x41d930
  411131:	e9 fa d5 00 00       	jmp    0x41e730
  411136:	e9 c5 4c 00 00       	jmp    0x415e00
  41113b:	e9 50 3c 00 00       	jmp    0x414d90
  411140:	e9 8b f8 00 00       	jmp    0x4209d0
  411145:	e9 36 a4 00 00       	jmp    0x41b580
  41114a:	e9 21 57 00 00       	jmp    0x416870
  41114f:	e9 6c 02 01 00       	jmp    0x4213c0
  411154:	e9 b7 da 00 00       	jmp    0x41ec10
  411159:	e9 22 d6 00 00       	jmp    0x41e780
  41115e:	e9 dd b4 00 00       	jmp    0x41c640
  411163:	e9 d8 f0 00 00       	jmp    0x420240
  411168:	e9 d3 93 00 00       	jmp    0x41a540
  41116d:	e9 fe f0 00 00       	jmp    0x420270
  411172:	e9 13 02 01 00       	jmp    0x42138a
  411177:	e9 6e d7 00 00       	jmp    0x41e8ea
  41117c:	e9 6f ab 00 00       	jmp    0x41bcf0
  411181:	e9 2e 02 01 00       	jmp    0x4213b4
  411186:	e9 a5 6a 00 00       	jmp    0x417c30
  41118b:	e9 80 69 00 00       	jmp    0x417b10
  411190:	e9 ed f8 00 00       	jmp    0x420a82
  411195:	e9 26 d7 00 00       	jmp    0x41e8c0
  41119a:	e9 4d f3 00 00       	jmp    0x4204ec
  41119f:	e9 8c 74 00 00       	jmp    0x418630
  4111a4:	e9 07 6c 00 00       	jmp    0x417db0
  4111a9:	e9 30 d7 00 00       	jmp    0x41e8de
  4111ae:	e9 6d 4d 00 00       	jmp    0x415f20
  4111b3:	e9 08 c0 00 00       	jmp    0x41d1c0
  4111b8:	e9 83 84 00 00       	jmp    0x419640
  4111bd:	e9 8e 67 00 00       	jmp    0x417950
  4111c2:	e9 79 94 00 00       	jmp    0x41a640
  4111c7:	e9 44 c8 00 00       	jmp    0x41da10
  4111cc:	e9 31 02 01 00       	jmp    0x421402
  4111d1:	e9 3a 6c 00 00       	jmp    0x417e10
  4111d6:	e9 95 f6 00 00       	jmp    0x420870
  4111db:	e9 c0 73 00 00       	jmp    0x4185a0
  4111e0:	e9 3b 4a 00 00       	jmp    0x415c20
  4111e5:	e9 76 f6 00 00       	jmp    0x420860
  4111ea:	e9 21 c2 00 00       	jmp    0x41d410
  4111ef:	e9 0c 91 00 00       	jmp    0x41a300
  4111f4:	e9 14 d4 00 00       	jmp    0x41e60d
  4111f9:	e9 78 d3 00 00       	jmp    0x41e576
  4111fe:	e9 dd 92 00 00       	jmp    0x41a4e0
  411203:	e9 08 a9 00 00       	jmp    0x41bb10
  411208:	e9 a3 a8 00 00       	jmp    0x41bab0
  41120d:	e9 c0 d9 00 00       	jmp    0x41ebd2
  411212:	e9 99 5f 00 00       	jmp    0x4171b0
  411217:	e9 24 b2 00 00       	jmp    0x41c440
  41121c:	e9 d5 01 01 00       	jmp    0x4213f6
  411221:	e9 3a d9 00 00       	jmp    0x41eb60
  411226:	e9 8f 01 01 00       	jmp    0x4213ba
  41122b:	e9 80 66 00 00       	jmp    0x4178b0
  411230:	e9 ab f0 00 00       	jmp    0x4202e0
  411235:	e9 06 b5 00 00       	jmp    0x41c740
  41123a:	e9 9f d9 00 00       	jmp    0x41ebde
  41123f:	e9 0c 5e 00 00       	jmp    0x417050
  411244:	e9 b7 e1 00 00       	jmp    0x41f400
  411249:	e9 02 26 00 00       	jmp    0x413850
  41124e:	e9 ed e1 00 00       	jmp    0x41f440
  411253:	e9 94 d3 00 00       	jmp    0x41e5ec
  411258:	e9 c1 e1 00 00       	jmp    0x41f41e
  41125d:	e9 36 cf 00 00       	jmp    0x41e198
  411262:	e9 47 01 01 00       	jmp    0x4213ae
  411267:	e9 94 46 00 00       	jmp    0x415900
  41126c:	e9 2f b3 00 00       	jmp    0x41c5a0
  411271:	e9 80 d6 00 00       	jmp    0x41e8f6
  411276:	e9 e5 da 00 00       	jmp    0x41ed60
  41127b:	e9 80 bf 00 00       	jmp    0x41d200
  411280:	e9 5b bd 00 00       	jmp    0x41cfe0
  411285:	e9 a2 d6 00 00       	jmp    0x41e92c
  41128a:	e9 61 34 00 00       	jmp    0x4146f0
  41128f:	e9 bc 3d 00 00       	jmp    0x415050
  411294:	e9 47 bc 00 00       	jmp    0x41cee0
  411299:	e9 7c d6 00 00       	jmp    0x41e91a
  41129e:	e9 e9 ce 00 00       	jmp    0x41e18c
  4112a3:	e9 d8 c8 00 00       	jmp    0x41db80
  4112a8:	e9 c1 d3 00 00       	jmp    0x41e66e
  4112ad:	e9 9e eb 00 00       	jmp    0x41fe50
  4112b2:	e9 a9 44 00 00       	jmp    0x415760
  4112b7:	e9 74 6d 00 00       	jmp    0x418030
  4112bc:	e9 4f a3 00 00       	jmp    0x41b610
  4112c1:	e9 4a 5f 00 00       	jmp    0x417210
  4112c6:	e9 a1 00 01 00       	jmp    0x42136c
  4112cb:	e9 70 4a 00 00       	jmp    0x415d40
  4112d0:	e9 2b d4 00 00       	jmp    0x41e700
  4112d5:	e9 80 f5 00 00       	jmp    0x42085a
  4112da:	e9 f9 d5 00 00       	jmp    0x41e8d8
  4112df:	e9 0c c6 00 00       	jmp    0x41d8f0
  4112e4:	e9 cb d8 00 00       	jmp    0x41ebb4
  4112e9:	e9 a2 57 00 00       	jmp    0x416a90
  4112ee:	e9 e5 00 01 00       	jmp    0x4213d8
  4112f3:	e9 96 f7 00 00       	jmp    0x420a8e
  4112f8:	e9 e7 d8 00 00       	jmp    0x41ebe4
  4112fd:	e9 ca d8 00 00       	jmp    0x41ebcc
  411302:	e9 69 7d 00 00       	jmp    0x419070
  411307:	e9 54 39 00 00       	jmp    0x414c60
  41130c:	e9 a3 d5 00 00       	jmp    0x41e8b4
  411311:	e9 fa 64 00 00       	jmp    0x417810
  411316:	e9 c9 d5 00 00       	jmp    0x41e8e4
  41131b:	e9 ba cf 00 00       	jmp    0x41e2da
  411320:	e9 41 00 01 00       	jmp    0x421366
  411325:	e9 c6 6e 00 00       	jmp    0x4181f0
  41132a:	e9 81 ec 00 00       	jmp    0x41ffb0
  41132f:	e9 70 d0 00 00       	jmp    0x41e3a4
  411334:	e9 99 d5 00 00       	jmp    0x41e8d2
  411339:	e9 02 bc 00 00       	jmp    0x41cf40
  41133e:	e9 fd d5 00 00       	jmp    0x41e940
  411343:	e9 98 bd 00 00       	jmp    0x41d0e0
  411348:	e9 83 68 00 00       	jmp    0x417bd0
  41134d:	e9 7e c7 00 00       	jmp    0x41dad0
  411352:	e9 d9 84 00 00       	jmp    0x419830
  411357:	e9 64 e9 00 00       	jmp    0x41fcc0
  41135c:	e9 0f 62 00 00       	jmp    0x417570
  411361:	e9 5a ed 00 00       	jmp    0x4200c0
  411366:	e9 c5 56 00 00       	jmp    0x416a30
  41136b:	e9 d0 44 00 00       	jmp    0x415840
  411370:	e9 cb 5b 00 00       	jmp    0x416f40
  411375:	e9 3b cf 00 00       	jmp    0x41e2b5
  41137a:	e9 e1 da 00 00       	jmp    0x41ee60
  41137f:	e9 3c db 00 00       	jmp    0x41eec0
  411384:	e9 47 f2 00 00       	jmp    0x4205d0
  411389:	e9 42 3d 00 00       	jmp    0x4150d0
  41138e:	e9 3d ae 00 00       	jmp    0x41c1d0
  411393:	e9 80 e0 00 00       	jmp    0x41f418
  411398:	e9 f9 ff 00 00       	jmp    0x421396
  41139d:	e9 ce 7c 00 00       	jmp    0x419070
  4113a2:	e9 89 a8 00 00       	jmp    0x41bc30
  4113a7:	e9 52 f6 00 00       	jmp    0x4209fe
  4113ac:	e9 6f da 00 00       	jmp    0x41ee20
  4113b1:	e9 2a 52 00 00       	jmp    0x4165e0
  4113b6:	e9 f5 a9 00 00       	jmp    0x41bdb0
  4113bb:	e9 00 b7 00 00       	jmp    0x41cac0
  4113c0:	e9 2b 86 00 00       	jmp    0x4199f0
  4113c5:	e9 96 e4 00 00       	jmp    0x41f860
  4113ca:	e9 c1 d4 00 00       	jmp    0x41e890
  4113cf:	e9 ec 44 00 00       	jmp    0x4158c0
  4113d4:	e9 67 3e 00 00       	jmp    0x415240
  4113d9:	e9 c2 3a 00 00       	jmp    0x414ea0
  4113de:	e9 1f d8 00 00       	jmp    0x41ec02
  4113e3:	e9 c8 ce 00 00       	jmp    0x41e2b0
  4113e8:	e9 bb d7 00 00       	jmp    0x41eba8
  4113ed:	e9 8e cd 00 00       	jmp    0x41e180
  4113f2:	e9 09 5d 00 00       	jmp    0x417100
  4113f7:	e9 a0 d7 00 00       	jmp    0x41eb9c
  4113fc:	e9 59 ff 00 00       	jmp    0x42135a
  411401:	e9 aa 53 00 00       	jmp    0x4167b0
  411406:	e9 45 73 00 00       	jmp    0x418750
  41140b:	e9 20 a3 00 00       	jmp    0x41b730
  411410:	e9 fb 65 00 00       	jmp    0x417a10
  411415:	e9 86 a2 00 00       	jmp    0x41b6a0
  41141a:	e9 a1 9d 00 00       	jmp    0x41b1c0
  41141f:	e9 ba cd 00 00       	jmp    0x41e1de
  411424:	e9 a7 47 00 00       	jmp    0x415bd0
  411429:	e9 12 b6 00 00       	jmp    0x41ca40
  41142e:	e9 ad f3 00 00       	jmp    0x4207e0
  411433:	e9 78 9a 00 00       	jmp    0x41aeb0
  411438:	e9 23 64 00 00       	jmp    0x417860
  41143d:	e9 fe 52 00 00       	jmp    0x416740
  411442:	e9 39 b2 00 00       	jmp    0x41c680
  411447:	e9 6c f1 00 00       	jmp    0x4205b8
  41144c:	e9 6f 30 00 00       	jmp    0x4144c0
  411451:	e9 6a 9e 00 00       	jmp    0x41b2c0
  411456:	e9 45 72 00 00       	jmp    0x4186a0
  41145b:	e9 d0 36 00 00       	jmp    0x414b30
  411460:	e9 6b 42 00 00       	jmp    0x4156d0
  411465:	e9 d6 58 00 00       	jmp    0x416d40
  41146a:	e9 01 a7 00 00       	jmp    0x41bb70
  41146f:	e9 0c d2 00 00       	jmp    0x41e680
  411474:	e9 f7 56 00 00       	jmp    0x416b70
  411479:	e9 22 ba 00 00       	jmp    0x41cea0
  41147e:	e9 cd 6e 00 00       	jmp    0x418350
  411483:	e9 79 d1 00 00       	jmp    0x41e601
  411488:	e9 93 60 00 00       	jmp    0x417520
  41148d:	e9 8a d0 00 00       	jmp    0x41e51c
  411492:	e9 89 b8 00 00       	jmp    0x41cd20
  411497:	e9 54 9c 00 00       	jmp    0x41b0f0
  41149c:	e9 e3 d3 00 00       	jmp    0x41e884
  4114a1:	e9 0a 65 00 00       	jmp    0x4179b0
  4114a6:	e9 b5 4c 00 00       	jmp    0x416160
  4114ab:	e9 62 d9 00 00       	jmp    0x41ee12
  4114b0:	e9 05 d7 00 00       	jmp    0x41ebba
  4114b5:	e9 46 6e 00 00       	jmp    0x418300
  4114ba:	e9 e1 48 00 00       	jmp    0x415da0
  4114bf:	e9 fc 49 00 00       	jmp    0x415ec0
  4114c4:	e9 0f d7 00 00       	jmp    0x41ebd8
  4114c9:	e9 f2 d6 00 00       	jmp    0x41ebc0
  4114ce:	e9 0d 41 00 00       	jmp    0x4155e0
  4114d3:	e9 18 ff 00 00       	jmp    0x4213f0
  4114d8:	e9 d3 ed 00 00       	jmp    0x4202b0
  4114dd:	e9 3e 82 00 00       	jmp    0x419720
  4114e2:	e9 09 b2 00 00       	jmp    0x41c6f0
  4114e7:	e9 34 d5 00 00       	jmp    0x41ea20
  4114ec:	e9 5f 7c 00 00       	jmp    0x419150
  4114f1:	e9 30 d4 00 00       	jmp    0x41e926
  4114f6:	e9 60 cf 00 00       	jmp    0x41e45b
  4114fb:	e9 96 d3 00 00       	jmp    0x41e896
  411500:	e9 6b db 00 00       	jmp    0x41f070
  411505:	e9 70 d1 00 00       	jmp    0x41e67a
  41150a:	e9 41 31 00 00       	jmp    0x414650
  41150f:	e9 0c 6f 00 00       	jmp    0x418420
  411514:	e9 d1 fe 00 00       	jmp    0x4213ea
  411519:	e9 32 8a 00 00       	jmp    0x419f50
  41151e:	e9 7d 82 00 00       	jmp    0x4197a0
  411523:	e9 b8 c2 00 00       	jmp    0x41d7e0
  411528:	e9 93 7c 00 00       	jmp    0x4191c0
  41152d:	e9 70 fe 00 00       	jmp    0x4213a2
  411532:	e9 39 59 00 00       	jmp    0x416e70
  411537:	e9 84 69 00 00       	jmp    0x417ec0
  41153c:	e9 af 29 00 00       	jmp    0x413ef0
  411541:	e9 3a ed 00 00       	jmp    0x420280
  411546:	e9 c5 f4 00 00       	jmp    0x420a10
  41154b:	e9 00 c5 00 00       	jmp    0x41da50
  411550:	e9 ad d3 00 00       	jmp    0x41e902
  411555:	e9 b6 6b 00 00       	jmp    0x418110
  41155a:	e9 41 98 00 00       	jmp    0x41ada0
  41155f:	e9 ec 9b 00 00       	jmp    0x41b150
  411564:	e9 a5 d3 00 00       	jmp    0x41e90e
  411569:	e9 f2 81 00 00       	jmp    0x419760
  41156e:	e9 5d 67 00 00       	jmp    0x417cd0
  411573:	e9 14 d1 00 00       	jmp    0x41e68c
  411578:	e9 d3 7b 00 00       	jmp    0x419150
  41157d:	e9 6a cf 00 00       	jmp    0x41e4ec
  411582:	e9 f9 b1 00 00       	jmp    0x41c780
  411587:	e9 14 78 00 00       	jmp    0x418da0
  41158c:	e9 cf fd 00 00       	jmp    0x421360
  411591:	e9 ea 4f 00 00       	jmp    0x416580
  411596:	e9 05 7a 00 00       	jmp    0x418fa0
  41159b:	e9 b0 a7 00 00       	jmp    0x41bd50
  4115a0:	e9 6b 41 00 00       	jmp    0x415710
  4115a5:	e9 b8 d0 00 00       	jmp    0x41e662
  4115aa:	e9 b9 d0 00 00       	jmp    0x41e668
  4115af:	e9 2c bd 00 00       	jmp    0x41d2e0
  4115b4:	e9 77 b8 00 00       	jmp    0x41ce30
  4115b9:	e9 f0 cb 00 00       	jmp    0x41e1ae
  4115be:	e9 1d 7b 00 00       	jmp    0x4190e0
  4115c3:	e9 18 72 00 00       	jmp    0x4187e0
  4115c8:	e9 33 ef 00 00       	jmp    0x420500
  4115cd:	e9 3e a8 00 00       	jmp    0x41be10
  4115d2:	e9 39 3e 00 00       	jmp    0x415410
  4115d7:	e9 a4 ef 00 00       	jmp    0x420580
  4115dc:	e9 eb fd 00 00       	jmp    0x4213cc
  4115e1:	e9 ca ef 00 00       	jmp    0x4205b0
  4115e6:	e9 d5 2f 00 00       	jmp    0x4145c0
  4115eb:	e9 79 cc 00 00       	jmp    0x41e269
  4115f0:	e9 cb b6 00 00       	jmp    0x41ccc0
  4115f5:	e9 b6 c2 00 00       	jmp    0x41d8b0
  4115fa:	e9 41 8b 00 00       	jmp    0x41a140
  4115ff:	e9 6c 65 00 00       	jmp    0x417b70
  411604:	e9 1b de 00 00       	jmp    0x41f424
  411609:	e9 04 de 00 00       	jmp    0x41f412
  41160e:	e9 8d 3c 00 00       	jmp    0x4152a0
  411613:	e9 ba fd 00 00       	jmp    0x4213d2
  411618:	e9 33 d6 00 00       	jmp    0x41ec50
  41161d:	e9 9c ef 00 00       	jmp    0x4205be
  411622:	e9 7d cb 00 00       	jmp    0x41e1a4
  411627:	e9 74 ac 00 00       	jmp    0x41c2a0
  41162c:	e9 9f b7 00 00       	jmp    0x41cdd0
  411631:	e9 5a c4 00 00       	jmp    0x41da90
  411636:	e9 f7 d2 00 00       	jmp    0x41e932
  41163b:	e9 e0 d2 00 00       	jmp    0x41e920
  411640:	e9 8b d7 00 00       	jmp    0x41edd0
  411645:	e9 46 75 00 00       	jmp    0x418b90
  41164a:	e9 45 cc 00 00       	jmp    0x41e294
  41164f:	e9 9c 73 00 00       	jmp    0x4189f0
  411654:	e9 47 b5 00 00       	jmp    0x41cba0
  411659:	e9 4a fd 00 00       	jmp    0x4213a8
  41165e:	e9 dd 49 00 00       	jmp    0x416040
  411663:	e9 b8 c0 00 00       	jmp    0x41d720
  411668:	e9 33 f3 00 00       	jmp    0x4209a0
  41166d:	e9 4e b3 00 00       	jmp    0x41c9c0
  411672:	e9 19 34 00 00       	jmp    0x414a90
  411677:	e9 04 31 00 00       	jmp    0x414780
  41167c:	e9 4b d2 00 00       	jmp    0x41e8cc
  411681:	e9 34 d2 00 00       	jmp    0x41e8ba
  411686:	e9 05 a2 00 00       	jmp    0x41b890
  41168b:	e9 68 ce 00 00       	jmp    0x41e4f8
  411690:	e9 7b ca 00 00       	jmp    0x41e110
  411695:	e9 b6 84 00 00       	jmp    0x419b50
  41169a:	e9 61 4d 00 00       	jmp    0x416400
  41169f:	e9 64 d2 00 00       	jmp    0x41e908
  4116a4:	e9 d5 fc 00 00       	jmp    0x42137e
  4116a9:	e9 62 33 00 00       	jmp    0x414a10
  4116ae:	e9 2d 5c 00 00       	jmp    0x4172e0
  4116b3:	e9 26 fd 00 00       	jmp    0x4213de
  4116b8:	e9 51 cc 00 00       	jmp    0x41e30e
  4116bd:	e9 fe b0 00 00       	jmp    0x41c7c0
  4116c2:	e9 f9 d0 00 00       	jmp    0x41e7c0
  4116c7:	e9 e4 c9 00 00       	jmp    0x41e0b0
  4116cc:	e9 bf 5b 00 00       	jmp    0x417290
  4116d1:	e9 2a a9 00 00       	jmp    0x41c000
  4116d6:	e9 b5 7b 00 00       	jmp    0x419290
  4116db:	e9 40 97 00 00       	jmp    0x41ae20
  4116e0:	e9 3b 3f 00 00       	jmp    0x415620
  4116e5:	e9 90 ca 00 00       	jmp    0x41e17a
  4116ea:	e9 01 d5 00 00       	jmp    0x41ebf0
  4116ef:	e9 6c bd 00 00       	jmp    0x41d460
  4116f4:	e9 87 3e 00 00       	jmp    0x415580
  4116f9:	e9 76 cf 00 00       	jmp    0x41e674
  4116fe:	e9 cd c2 00 00       	jmp    0x41d9d0
  411703:	e9 d8 79 00 00       	jmp    0x4190e0
  411708:	e9 6b fc 00 00       	jmp    0x421378
  41170d:	e9 a3 cd 00 00       	jmp    0x41e4b5
  411712:	e9 99 84 00 00       	jmp    0x419bb0
  411717:	e9 54 3f 00 00       	jmp    0x415670
  41171c:	e9 0f 72 00 00       	jmp    0x418930
  411721:	e9 3a b9 00 00       	jmp    0x41d060
  411726:	e9 45 44 00 00       	jmp    0x415b70
  41172b:	e9 72 d4 00 00       	jmp    0x41eba2
  411730:	e9 6b e8 00 00       	jmp    0x41ffa0
  411735:	e9 5c d4 00 00       	jmp    0x41eb96
  41173a:	e9 61 be 00 00       	jmp    0x41d5a0
  41173f:	e9 4c 99 00 00       	jmp    0x41b090
  411744:	e9 97 4b 00 00       	jmp    0x4162e0
  411749:	e9 b2 f8 00 00       	jmp    0x421000
  41174e:	e9 8d 9c 00 00       	jmp    0x41b3e0
  411753:	e9 d8 51 00 00       	jmp    0x416930
  411758:	e9 78 cd 00 00       	jmp    0x41e4d5
  41175d:	e9 2e 39 00 00       	jmp    0x415090
  411762:	e9 d9 b3 00 00       	jmp    0x41cb40
  411767:	e9 44 71 00 00       	jmp    0x4188b0
  41176c:	e9 13 fc 00 00       	jmp    0x421384
  411771:	e9 96 eb 00 00       	jmp    0x42030c
  411776:	e9 c5 6a 00 00       	jmp    0x418240
  41177b:	e9 20 cf 00 00       	jmp    0x41e6a0
  411780:	e9 db ee 00 00       	jmp    0x420660
  411785:	e9 ee d6 00 00       	jmp    0x41ee78
  41178a:	e9 55 fc 00 00       	jmp    0x4213e4
  41178f:	e9 ac bb 00 00       	jmp    0x41d340
  411794:	e9 97 81 00 00       	jmp    0x419930
  411799:	e9 02 ee 00 00       	jmp    0x4205a0
  41179e:	e9 e7 d0 00 00       	jmp    0x41e88a
  4117a3:	e9 b8 4c 00 00       	jmp    0x416460
  4117a8:	e9 d3 44 00 00       	jmp    0x415c80
  4117ad:	e9 86 d1 00 00       	jmp    0x41e938
  4117b2:	e9 e9 3f 00 00       	jmp    0x4157a0
  4117b7:	e9 de ed 00 00       	jmp    0x42059a
  4117bc:	e9 94 ca 00 00       	jmp    0x41e255
  4117c1:	e9 4a 3b 00 00       	jmp    0x415310
  4117c6:	e9 25 83 00 00       	jmp    0x419af0
  4117cb:	e9 c2 c9 00 00       	jmp    0x41e192
  4117d0:	e9 5b 53 00 00       	jmp    0x416b30
  4117d5:	e9 76 59 00 00       	jmp    0x417150
  4117da:	e9 21 78 00 00       	jmp    0x419000
  4117df:	e9 ac a8 00 00       	jmp    0x41c090
  4117e4:	e9 db ed 00 00       	jmp    0x4205c4
  4117e9:	e9 42 a7 00 00       	jmp    0x41bf30
  4117ee:	e9 bd 53 00 00       	jmp    0x416bb0
  4117f3:	e9 48 2d 00 00       	jmp    0x414540
  4117f8:	e9 73 65 00 00       	jmp    0x417d70
  4117fd:	e9 8e 5e 00 00       	jmp    0x417690
  411802:	e9 f9 60 00 00       	jmp    0x417900
  411807:	e9 94 57 00 00       	jmp    0x416fa0
  41180c:	e9 df 70 00 00       	jmp    0x4188f0
  411811:	e9 d4 d3 00 00       	jmp    0x41ebea
  411816:	e9 65 bb 00 00       	jmp    0x41d380
  41181b:	e9 80 4b 00 00       	jmp    0x4163a0
  411820:	e9 d7 d3 00 00       	jmp    0x41ebfc
  411825:	e9 56 d6 00 00       	jmp    0x41ee80
  41182a:	e9 d1 32 00 00       	jmp    0x414b00
  41182f:	e9 0c 73 00 00       	jmp    0x418b40
  411834:	e9 5b f2 00 00       	jmp    0x420a94
  411839:	e9 a2 ad 00 00       	jmp    0x41c5e0
  41183e:	e9 cd c2 00 00       	jmp    0x41db10
  411843:	e9 a8 7a 00 00       	jmp    0x4192f0
  411848:	e9 33 47 00 00       	jmp    0x415f80
  41184d:	e9 de 74 00 00       	jmp    0x418d30
  411852:	e9 b1 fb 00 00       	jmp    0x421408
  411857:	e9 3c ce 00 00       	jmp    0x41e698
  41185c:	e9 2f f1 00 00       	jmp    0x420990
  411861:	e9 8a d0 00 00       	jmp    0x41e8f0
  411866:	e9 d5 eb 00 00       	jmp    0x420440
  41186b:	e9 80 8b 00 00       	jmp    0x41a3f0
  411870:	e9 0b 40 00 00       	jmp    0x415880
  411875:	e9 86 48 00 00       	jmp    0x416100
  41187a:	e9 1d fb 00 00       	jmp    0x42139c
  41187f:	e9 3c bb 00 00       	jmp    0x41d3c0
  411884:	e9 67 df 00 00       	jmp    0x41f7f0
  411889:	e9 92 76 00 00       	jmp    0x418f20
  41188e:	e9 1d 7b 00 00       	jmp    0x4193b0
  411893:	e9 78 66 00 00       	jmp    0x417f10
  411898:	e9 11 d0 00 00       	jmp    0x41e8ae
  41189d:	e9 24 fb 00 00       	jmp    0x4213c6
  4118a2:	e9 29 74 00 00       	jmp    0x418cd0
  4118a7:	e9 1a d3 00 00       	jmp    0x41ebc6
  4118ac:	e9 79 db 00 00       	jmp    0x41f42a
  4118b1:	e9 3a 52 00 00       	jmp    0x416af0
  4118b6:	e9 55 dd 00 00       	jmp    0x41f610
  4118bb:	e9 c0 b9 00 00       	jmp    0x41d280
  4118c0:	e9 fb 9e 00 00       	jmp    0x41b7c0
  4118c5:	e9 a6 70 00 00       	jmp    0x418970
  4118ca:	e9 c3 cd 00 00       	jmp    0x41e692
  4118cf:	e9 80 ef 00 00       	jmp    0x420854
  4118d4:	e9 d7 50 00 00       	jmp    0x4169b0
  4118d9:	e9 e2 5c 00 00       	jmp    0x4175c0
  4118de:	e9 ed 5a 00 00       	jmp    0x4173d0
  4118e3:	e9 e8 4f 00 00       	jmp    0x4168d0
  4118e8:	e9 b1 c8 00 00       	jmp    0x41e19e
  4118ed:	e9 3e db 00 00       	jmp    0x41f430
  4118f2:	e9 39 b0 00 00       	jmp    0x41c930
  4118f7:	e9 04 b3 00 00       	jmp    0x41cc00
  4118fc:	e9 cf a2 00 00       	jmp    0x41bbd0
  411901:	e9 f6 fa 00 00       	jmp    0x4213fc
  411906:	e9 15 ea 00 00       	jmp    0x420320
  41190b:	e9 78 f1 00 00       	jmp    0x420a88
  411910:	e9 87 cf 00 00       	jmp    0x41e89c
  411915:	e9 c9 ca 00 00       	jmp    0x41e3e3
  41191a:	e9 a1 48 00 00       	jmp    0x4161c0
  41191f:	e9 8d cb 00 00       	jmp    0x41e4b1
  411924:	e9 67 a3 00 00       	jmp    0x41bc90
  411929:	e9 58 c8 00 00       	jmp    0x41e186
  41192e:	e9 c9 cf 00 00       	jmp    0x41e8fc
  411933:	e9 f8 e8 00 00       	jmp    0x420230
  411938:	e9 71 d2 00 00       	jmp    0x41ebae
  41193d:	e9 3e 49 00 00       	jmp    0x416280
  411942:	e9 89 7b 00 00       	jmp    0x4194d0
  411947:	e9 84 7c 00 00       	jmp    0x4195d0
  41194c:	e9 0f 66 00 00       	jmp    0x417f60
  411951:	e9 4a 47 00 00       	jmp    0x4160a0
  411956:	cc                   	int3   
  411957:	cc                   	int3   
  411958:	cc                   	int3   
  411959:	cc                   	int3   
  41195a:	cc                   	int3   
  41195b:	cc                   	int3   
  41195c:	cc                   	int3   
  41195d:	cc                   	int3   
  41195e:	cc                   	int3   
  41195f:	cc                   	int3   
  411960:	cc                   	int3   
  411961:	cc                   	int3   
  411962:	cc                   	int3   
  411963:	cc                   	int3   
  411964:	cc                   	int3   
  411965:	cc                   	int3   
  411966:	cc                   	int3   
  411967:	cc                   	int3   
  411968:	cc                   	int3   
  411969:	cc                   	int3   
  41196a:	cc                   	int3   
  41196b:	cc                   	int3   
  41196c:	cc                   	int3   
  41196d:	cc                   	int3   
  41196e:	cc                   	int3   
  41196f:	cc                   	int3   
  411970:	cc                   	int3   
  411971:	cc                   	int3   
  411972:	cc                   	int3   
  411973:	cc                   	int3   
  411974:	cc                   	int3   
  411975:	cc                   	int3   
  411976:	cc                   	int3   
  411977:	cc                   	int3   
  411978:	cc                   	int3   
  411979:	cc                   	int3   
  41197a:	cc                   	int3   
  41197b:	cc                   	int3   
  41197c:	cc                   	int3   
  41197d:	cc                   	int3   
  41197e:	cc                   	int3   
  41197f:	cc                   	int3   
  411980:	cc                   	int3   
  411981:	cc                   	int3   
  411982:	cc                   	int3   
  411983:	cc                   	int3   
  411984:	cc                   	int3   
  411985:	cc                   	int3   
  411986:	cc                   	int3   
  411987:	cc                   	int3   
  411988:	cc                   	int3   
  411989:	cc                   	int3   
  41198a:	cc                   	int3   
  41198b:	cc                   	int3   
  41198c:	cc                   	int3   
  41198d:	cc                   	int3   
  41198e:	cc                   	int3   
  41198f:	cc                   	int3   
  411990:	cc                   	int3   
  411991:	cc                   	int3   
  411992:	cc                   	int3   
  411993:	cc                   	int3   
  411994:	cc                   	int3   
  411995:	cc                   	int3   
  411996:	cc                   	int3   
  411997:	cc                   	int3   
  411998:	cc                   	int3   
  411999:	cc                   	int3   
  41199a:	cc                   	int3   
  41199b:	cc                   	int3   
  41199c:	cc                   	int3   
  41199d:	cc                   	int3   
  41199e:	cc                   	int3   
  41199f:	cc                   	int3   
  4119a0:	cc                   	int3   
  4119a1:	cc                   	int3   
  4119a2:	cc                   	int3   
  4119a3:	cc                   	int3   
  4119a4:	cc                   	int3   
  4119a5:	cc                   	int3   
  4119a6:	cc                   	int3   
  4119a7:	cc                   	int3   
  4119a8:	cc                   	int3   
  4119a9:	cc                   	int3   
  4119aa:	cc                   	int3   
  4119ab:	cc                   	int3   
  4119ac:	cc                   	int3   
  4119ad:	cc                   	int3   
  4119ae:	cc                   	int3   
  4119af:	cc                   	int3   
  4119b0:	cc                   	int3   
  4119b1:	cc                   	int3   
  4119b2:	cc                   	int3   
  4119b3:	cc                   	int3   
  4119b4:	cc                   	int3   
  4119b5:	cc                   	int3   
  4119b6:	cc                   	int3   
  4119b7:	cc                   	int3   
  4119b8:	cc                   	int3   
  4119b9:	cc                   	int3   
  4119ba:	cc                   	int3   
  4119bb:	cc                   	int3   
  4119bc:	cc                   	int3   
  4119bd:	cc                   	int3   
  4119be:	cc                   	int3   
  4119bf:	cc                   	int3   
  4119c0:	cc                   	int3   
  4119c1:	cc                   	int3   
  4119c2:	cc                   	int3   
  4119c3:	cc                   	int3   
  4119c4:	cc                   	int3   
  4119c5:	cc                   	int3   
  4119c6:	cc                   	int3   
  4119c7:	cc                   	int3   
  4119c8:	cc                   	int3   
  4119c9:	cc                   	int3   
  4119ca:	cc                   	int3   
  4119cb:	cc                   	int3   
  4119cc:	cc                   	int3   
  4119cd:	cc                   	int3   
  4119ce:	cc                   	int3   
  4119cf:	cc                   	int3   
  4119d0:	cc                   	int3   
  4119d1:	cc                   	int3   
  4119d2:	cc                   	int3   
  4119d3:	cc                   	int3   
  4119d4:	cc                   	int3   
  4119d5:	cc                   	int3   
  4119d6:	cc                   	int3   
  4119d7:	cc                   	int3   
  4119d8:	cc                   	int3   
  4119d9:	cc                   	int3   
  4119da:	cc                   	int3   
  4119db:	cc                   	int3   
  4119dc:	cc                   	int3   
  4119dd:	cc                   	int3   
  4119de:	cc                   	int3   
  4119df:	cc                   	int3   
  4119e0:	cc                   	int3   
  4119e1:	cc                   	int3   
  4119e2:	cc                   	int3   
  4119e3:	cc                   	int3   
  4119e4:	cc                   	int3   
  4119e5:	cc                   	int3   
  4119e6:	cc                   	int3   
  4119e7:	cc                   	int3   
  4119e8:	cc                   	int3   
  4119e9:	cc                   	int3   
  4119ea:	cc                   	int3   
  4119eb:	cc                   	int3   
  4119ec:	cc                   	int3   
  4119ed:	cc                   	int3   
  4119ee:	cc                   	int3   
  4119ef:	cc                   	int3   
  4119f0:	cc                   	int3   
  4119f1:	cc                   	int3   
  4119f2:	cc                   	int3   
  4119f3:	cc                   	int3   
  4119f4:	cc                   	int3   
  4119f5:	cc                   	int3   
  4119f6:	cc                   	int3   
  4119f7:	cc                   	int3   
  4119f8:	cc                   	int3   
  4119f9:	cc                   	int3   
  4119fa:	cc                   	int3   
  4119fb:	cc                   	int3   
  4119fc:	cc                   	int3   
  4119fd:	cc                   	int3   
  4119fe:	cc                   	int3   
  4119ff:	cc                   	int3   
  411a00:	cc                   	int3   
  411a01:	cc                   	int3   
  411a02:	cc                   	int3   
  411a03:	cc                   	int3   
  411a04:	cc                   	int3   
  411a05:	cc                   	int3   
  411a06:	cc                   	int3   
  411a07:	cc                   	int3   
  411a08:	cc                   	int3   
  411a09:	cc                   	int3   
  411a0a:	cc                   	int3   
  411a0b:	cc                   	int3   
  411a0c:	cc                   	int3   
  411a0d:	cc                   	int3   
  411a0e:	cc                   	int3   
  411a0f:	cc                   	int3   
  411a10:	cc                   	int3   
  411a11:	cc                   	int3   
  411a12:	cc                   	int3   
  411a13:	cc                   	int3   
  411a14:	cc                   	int3   
  411a15:	cc                   	int3   
  411a16:	cc                   	int3   
  411a17:	cc                   	int3   
  411a18:	cc                   	int3   
  411a19:	cc                   	int3   
  411a1a:	cc                   	int3   
  411a1b:	cc                   	int3   
  411a1c:	cc                   	int3   
  411a1d:	cc                   	int3   
  411a1e:	cc                   	int3   
  411a1f:	cc                   	int3   
  411a20:	cc                   	int3   
  411a21:	cc                   	int3   
  411a22:	cc                   	int3   
  411a23:	cc                   	int3   
  411a24:	cc                   	int3   
  411a25:	cc                   	int3   
  411a26:	cc                   	int3   
  411a27:	cc                   	int3   
  411a28:	cc                   	int3   
  411a29:	cc                   	int3   
  411a2a:	cc                   	int3   
  411a2b:	cc                   	int3   
  411a2c:	cc                   	int3   
  411a2d:	cc                   	int3   
  411a2e:	cc                   	int3   
  411a2f:	cc                   	int3   
  411a30:	cc                   	int3   
  411a31:	cc                   	int3   
  411a32:	cc                   	int3   
  411a33:	cc                   	int3   
  411a34:	cc                   	int3   
  411a35:	cc                   	int3   
  411a36:	cc                   	int3   
  411a37:	cc                   	int3   
  411a38:	cc                   	int3   
  411a39:	cc                   	int3   
  411a3a:	cc                   	int3   
  411a3b:	cc                   	int3   
  411a3c:	cc                   	int3   
  411a3d:	cc                   	int3   
  411a3e:	cc                   	int3   
  411a3f:	cc                   	int3   
  411a40:	cc                   	int3   
  411a41:	cc                   	int3   
  411a42:	cc                   	int3   
  411a43:	cc                   	int3   
  411a44:	cc                   	int3   
  411a45:	cc                   	int3   
  411a46:	cc                   	int3   
  411a47:	cc                   	int3   
  411a48:	cc                   	int3   
  411a49:	cc                   	int3   
  411a4a:	cc                   	int3   
  411a4b:	cc                   	int3   
  411a4c:	cc                   	int3   
  411a4d:	cc                   	int3   
  411a4e:	cc                   	int3   
  411a4f:	cc                   	int3   
  411a50:	cc                   	int3   
  411a51:	cc                   	int3   
  411a52:	cc                   	int3   
  411a53:	cc                   	int3   
  411a54:	cc                   	int3   
  411a55:	cc                   	int3   
  411a56:	cc                   	int3   
  411a57:	cc                   	int3   
  411a58:	cc                   	int3   
  411a59:	cc                   	int3   
  411a5a:	cc                   	int3   
  411a5b:	cc                   	int3   
  411a5c:	cc                   	int3   
  411a5d:	cc                   	int3   
  411a5e:	cc                   	int3   
  411a5f:	cc                   	int3   
  411a60:	cc                   	int3   
  411a61:	cc                   	int3   
  411a62:	cc                   	int3   
  411a63:	cc                   	int3   
  411a64:	cc                   	int3   
  411a65:	cc                   	int3   
  411a66:	cc                   	int3   
  411a67:	cc                   	int3   
  411a68:	cc                   	int3   
  411a69:	cc                   	int3   
  411a6a:	cc                   	int3   
  411a6b:	cc                   	int3   
  411a6c:	cc                   	int3   
  411a6d:	cc                   	int3   
  411a6e:	cc                   	int3   
  411a6f:	cc                   	int3   
  411a70:	cc                   	int3   
  411a71:	cc                   	int3   
  411a72:	cc                   	int3   
  411a73:	cc                   	int3   
  411a74:	cc                   	int3   
  411a75:	cc                   	int3   
  411a76:	cc                   	int3   
  411a77:	cc                   	int3   
  411a78:	cc                   	int3   
  411a79:	cc                   	int3   
  411a7a:	cc                   	int3   
  411a7b:	cc                   	int3   
  411a7c:	cc                   	int3   
  411a7d:	cc                   	int3   
  411a7e:	cc                   	int3   
  411a7f:	cc                   	int3   
  411a80:	cc                   	int3   
  411a81:	cc                   	int3   
  411a82:	cc                   	int3   
  411a83:	cc                   	int3   
  411a84:	cc                   	int3   
  411a85:	cc                   	int3   
  411a86:	cc                   	int3   
  411a87:	cc                   	int3   
  411a88:	cc                   	int3   
  411a89:	cc                   	int3   
  411a8a:	cc                   	int3   
  411a8b:	cc                   	int3   
  411a8c:	cc                   	int3   
  411a8d:	cc                   	int3   
  411a8e:	cc                   	int3   
  411a8f:	cc                   	int3   
  411a90:	cc                   	int3   
  411a91:	cc                   	int3   
  411a92:	cc                   	int3   
  411a93:	cc                   	int3   
  411a94:	cc                   	int3   
  411a95:	cc                   	int3   
  411a96:	cc                   	int3   
  411a97:	cc                   	int3   
  411a98:	cc                   	int3   
  411a99:	cc                   	int3   
  411a9a:	cc                   	int3   
  411a9b:	cc                   	int3   
  411a9c:	cc                   	int3   
  411a9d:	cc                   	int3   
  411a9e:	cc                   	int3   
  411a9f:	cc                   	int3   
  411aa0:	cc                   	int3   
  411aa1:	cc                   	int3   
  411aa2:	cc                   	int3   
  411aa3:	cc                   	int3   
  411aa4:	cc                   	int3   
  411aa5:	cc                   	int3   
  411aa6:	cc                   	int3   
  411aa7:	cc                   	int3   
  411aa8:	cc                   	int3   
  411aa9:	cc                   	int3   
  411aaa:	cc                   	int3   
  411aab:	cc                   	int3   
  411aac:	cc                   	int3   
  411aad:	cc                   	int3   
  411aae:	cc                   	int3   
  411aaf:	cc                   	int3   
  411ab0:	cc                   	int3   
  411ab1:	cc                   	int3   
  411ab2:	cc                   	int3   
  411ab3:	cc                   	int3   
  411ab4:	cc                   	int3   
  411ab5:	cc                   	int3   
  411ab6:	cc                   	int3   
  411ab7:	cc                   	int3   
  411ab8:	cc                   	int3   
  411ab9:	cc                   	int3   
  411aba:	cc                   	int3   
  411abb:	cc                   	int3   
  411abc:	cc                   	int3   
  411abd:	cc                   	int3   
  411abe:	cc                   	int3   
  411abf:	cc                   	int3   
  411ac0:	cc                   	int3   
  411ac1:	cc                   	int3   
  411ac2:	cc                   	int3   
  411ac3:	cc                   	int3   
  411ac4:	cc                   	int3   
  411ac5:	cc                   	int3   
  411ac6:	cc                   	int3   
  411ac7:	cc                   	int3   
  411ac8:	cc                   	int3   
  411ac9:	cc                   	int3   
  411aca:	cc                   	int3   
  411acb:	cc                   	int3   
  411acc:	cc                   	int3   
  411acd:	cc                   	int3   
  411ace:	cc                   	int3   
  411acf:	cc                   	int3   
  411ad0:	cc                   	int3   
  411ad1:	cc                   	int3   
  411ad2:	cc                   	int3   
  411ad3:	cc                   	int3   
  411ad4:	cc                   	int3   
  411ad5:	cc                   	int3   
  411ad6:	cc                   	int3   
  411ad7:	cc                   	int3   
  411ad8:	cc                   	int3   
  411ad9:	cc                   	int3   
  411ada:	cc                   	int3   
  411adb:	cc                   	int3   
  411adc:	cc                   	int3   
  411add:	cc                   	int3   
  411ade:	cc                   	int3   
  411adf:	cc                   	int3   
  411ae0:	cc                   	int3   
  411ae1:	cc                   	int3   
  411ae2:	cc                   	int3   
  411ae3:	cc                   	int3   
  411ae4:	cc                   	int3   
  411ae5:	cc                   	int3   
  411ae6:	cc                   	int3   
  411ae7:	cc                   	int3   
  411ae8:	cc                   	int3   
  411ae9:	cc                   	int3   
  411aea:	cc                   	int3   
  411aeb:	cc                   	int3   
  411aec:	cc                   	int3   
  411aed:	cc                   	int3   
  411aee:	cc                   	int3   
  411aef:	cc                   	int3   
  411af0:	cc                   	int3   
  411af1:	cc                   	int3   
  411af2:	cc                   	int3   
  411af3:	cc                   	int3   
  411af4:	cc                   	int3   
  411af5:	cc                   	int3   
  411af6:	cc                   	int3   
  411af7:	cc                   	int3   
  411af8:	cc                   	int3   
  411af9:	cc                   	int3   
  411afa:	cc                   	int3   
  411afb:	cc                   	int3   
  411afc:	cc                   	int3   
  411afd:	cc                   	int3   
  411afe:	cc                   	int3   
  411aff:	cc                   	int3   
  411b00:	cc                   	int3   
  411b01:	cc                   	int3   
  411b02:	cc                   	int3   
  411b03:	cc                   	int3   
  411b04:	cc                   	int3   
  411b05:	cc                   	int3   
  411b06:	cc                   	int3   
  411b07:	cc                   	int3   
  411b08:	cc                   	int3   
  411b09:	cc                   	int3   
  411b0a:	cc                   	int3   
  411b0b:	cc                   	int3   
  411b0c:	cc                   	int3   
  411b0d:	cc                   	int3   
  411b0e:	cc                   	int3   
  411b0f:	cc                   	int3   
  411b10:	cc                   	int3   
  411b11:	cc                   	int3   
  411b12:	cc                   	int3   
  411b13:	cc                   	int3   
  411b14:	cc                   	int3   
  411b15:	cc                   	int3   
  411b16:	cc                   	int3   
  411b17:	cc                   	int3   
  411b18:	cc                   	int3   
  411b19:	cc                   	int3   
  411b1a:	cc                   	int3   
  411b1b:	cc                   	int3   
  411b1c:	cc                   	int3   
  411b1d:	cc                   	int3   
  411b1e:	cc                   	int3   
  411b1f:	cc                   	int3   
  411b20:	cc                   	int3   
  411b21:	cc                   	int3   
  411b22:	cc                   	int3   
  411b23:	cc                   	int3   
  411b24:	cc                   	int3   
  411b25:	cc                   	int3   
  411b26:	cc                   	int3   
  411b27:	cc                   	int3   
  411b28:	cc                   	int3   
  411b29:	cc                   	int3   
  411b2a:	cc                   	int3   
  411b2b:	cc                   	int3   
  411b2c:	cc                   	int3   
  411b2d:	cc                   	int3   
  411b2e:	cc                   	int3   
  411b2f:	cc                   	int3   
  411b30:	cc                   	int3   
  411b31:	cc                   	int3   
  411b32:	cc                   	int3   
  411b33:	cc                   	int3   
  411b34:	cc                   	int3   
  411b35:	cc                   	int3   
  411b36:	cc                   	int3   
  411b37:	cc                   	int3   
  411b38:	cc                   	int3   
  411b39:	cc                   	int3   
  411b3a:	cc                   	int3   
  411b3b:	cc                   	int3   
  411b3c:	cc                   	int3   
  411b3d:	cc                   	int3   
  411b3e:	cc                   	int3   
  411b3f:	cc                   	int3   
  411b40:	cc                   	int3   
  411b41:	cc                   	int3   
  411b42:	cc                   	int3   
  411b43:	cc                   	int3   
  411b44:	cc                   	int3   
  411b45:	cc                   	int3   
  411b46:	cc                   	int3   
  411b47:	cc                   	int3   
  411b48:	cc                   	int3   
  411b49:	cc                   	int3   
  411b4a:	cc                   	int3   
  411b4b:	cc                   	int3   
  411b4c:	cc                   	int3   
  411b4d:	cc                   	int3   
  411b4e:	cc                   	int3   
  411b4f:	cc                   	int3   
  411b50:	cc                   	int3   
  411b51:	cc                   	int3   
  411b52:	cc                   	int3   
  411b53:	cc                   	int3   
  411b54:	cc                   	int3   
  411b55:	cc                   	int3   
  411b56:	cc                   	int3   
  411b57:	cc                   	int3   
  411b58:	cc                   	int3   
  411b59:	cc                   	int3   
  411b5a:	cc                   	int3   
  411b5b:	cc                   	int3   
  411b5c:	cc                   	int3   
  411b5d:	cc                   	int3   
  411b5e:	cc                   	int3   
  411b5f:	cc                   	int3   
  411b60:	cc                   	int3   
  411b61:	cc                   	int3   
  411b62:	cc                   	int3   
  411b63:	cc                   	int3   
  411b64:	cc                   	int3   
  411b65:	cc                   	int3   
  411b66:	cc                   	int3   
  411b67:	cc                   	int3   
  411b68:	cc                   	int3   
  411b69:	cc                   	int3   
  411b6a:	cc                   	int3   
  411b6b:	cc                   	int3   
  411b6c:	cc                   	int3   
  411b6d:	cc                   	int3   
  411b6e:	cc                   	int3   
  411b6f:	cc                   	int3   
  411b70:	cc                   	int3   
  411b71:	cc                   	int3   
  411b72:	cc                   	int3   
  411b73:	cc                   	int3   
  411b74:	cc                   	int3   
  411b75:	cc                   	int3   
  411b76:	cc                   	int3   
  411b77:	cc                   	int3   
  411b78:	cc                   	int3   
  411b79:	cc                   	int3   
  411b7a:	cc                   	int3   
  411b7b:	cc                   	int3   
  411b7c:	cc                   	int3   
  411b7d:	cc                   	int3   
  411b7e:	cc                   	int3   
  411b7f:	cc                   	int3   
  411b80:	cc                   	int3   
  411b81:	cc                   	int3   
  411b82:	cc                   	int3   
  411b83:	cc                   	int3   
  411b84:	cc                   	int3   
  411b85:	cc                   	int3   
  411b86:	cc                   	int3   
  411b87:	cc                   	int3   
  411b88:	cc                   	int3   
  411b89:	cc                   	int3   
  411b8a:	cc                   	int3   
  411b8b:	cc                   	int3   
  411b8c:	cc                   	int3   
  411b8d:	cc                   	int3   
  411b8e:	cc                   	int3   
  411b8f:	cc                   	int3   
  411b90:	cc                   	int3   
  411b91:	cc                   	int3   
  411b92:	cc                   	int3   
  411b93:	cc                   	int3   
  411b94:	cc                   	int3   
  411b95:	cc                   	int3   
  411b96:	cc                   	int3   
  411b97:	cc                   	int3   
  411b98:	cc                   	int3   
  411b99:	cc                   	int3   
  411b9a:	cc                   	int3   
  411b9b:	cc                   	int3   
  411b9c:	cc                   	int3   
  411b9d:	cc                   	int3   
  411b9e:	cc                   	int3   
  411b9f:	cc                   	int3   
  411ba0:	cc                   	int3   
  411ba1:	cc                   	int3   
  411ba2:	cc                   	int3   
  411ba3:	cc                   	int3   
  411ba4:	cc                   	int3   
  411ba5:	cc                   	int3   
  411ba6:	cc                   	int3   
  411ba7:	cc                   	int3   
  411ba8:	cc                   	int3   
  411ba9:	cc                   	int3   
  411baa:	cc                   	int3   
  411bab:	cc                   	int3   
  411bac:	cc                   	int3   
  411bad:	cc                   	int3   
  411bae:	cc                   	int3   
  411baf:	cc                   	int3   
  411bb0:	cc                   	int3   
  411bb1:	cc                   	int3   
  411bb2:	cc                   	int3   
  411bb3:	cc                   	int3   
  411bb4:	cc                   	int3   
  411bb5:	cc                   	int3   
  411bb6:	cc                   	int3   
  411bb7:	cc                   	int3   
  411bb8:	cc                   	int3   
  411bb9:	cc                   	int3   
  411bba:	cc                   	int3   
  411bbb:	cc                   	int3   
  411bbc:	cc                   	int3   
  411bbd:	cc                   	int3   
  411bbe:	cc                   	int3   
  411bbf:	cc                   	int3   
  411bc0:	cc                   	int3   
  411bc1:	cc                   	int3   
  411bc2:	cc                   	int3   
  411bc3:	cc                   	int3   
  411bc4:	cc                   	int3   
  411bc5:	cc                   	int3   
  411bc6:	cc                   	int3   
  411bc7:	cc                   	int3   
  411bc8:	cc                   	int3   
  411bc9:	cc                   	int3   
  411bca:	cc                   	int3   
  411bcb:	cc                   	int3   
  411bcc:	cc                   	int3   
  411bcd:	cc                   	int3   
  411bce:	cc                   	int3   
  411bcf:	cc                   	int3   
  411bd0:	cc                   	int3   
  411bd1:	cc                   	int3   
  411bd2:	cc                   	int3   
  411bd3:	cc                   	int3   
  411bd4:	cc                   	int3   
  411bd5:	cc                   	int3   
  411bd6:	cc                   	int3   
  411bd7:	cc                   	int3   
  411bd8:	cc                   	int3   
  411bd9:	cc                   	int3   
  411bda:	cc                   	int3   
  411bdb:	cc                   	int3   
  411bdc:	cc                   	int3   
  411bdd:	cc                   	int3   
  411bde:	cc                   	int3   
  411bdf:	cc                   	int3   
  411be0:	cc                   	int3   
  411be1:	cc                   	int3   
  411be2:	cc                   	int3   
  411be3:	cc                   	int3   
  411be4:	cc                   	int3   
  411be5:	cc                   	int3   
  411be6:	cc                   	int3   
  411be7:	cc                   	int3   
  411be8:	cc                   	int3   
  411be9:	cc                   	int3   
  411bea:	cc                   	int3   
  411beb:	cc                   	int3   
  411bec:	cc                   	int3   
  411bed:	cc                   	int3   
  411bee:	cc                   	int3   
  411bef:	cc                   	int3   
  411bf0:	cc                   	int3   
  411bf1:	cc                   	int3   
  411bf2:	cc                   	int3   
  411bf3:	cc                   	int3   
  411bf4:	cc                   	int3   
  411bf5:	cc                   	int3   
  411bf6:	cc                   	int3   
  411bf7:	cc                   	int3   
  411bf8:	cc                   	int3   
  411bf9:	cc                   	int3   
  411bfa:	cc                   	int3   
  411bfb:	cc                   	int3   
  411bfc:	cc                   	int3   
  411bfd:	cc                   	int3   
  411bfe:	cc                   	int3   
  411bff:	cc                   	int3   
  411c00:	cc                   	int3   
  411c01:	cc                   	int3   
  411c02:	cc                   	int3   
  411c03:	cc                   	int3   
  411c04:	cc                   	int3   
  411c05:	cc                   	int3   
  411c06:	cc                   	int3   
  411c07:	cc                   	int3   
  411c08:	cc                   	int3   
  411c09:	cc                   	int3   
  411c0a:	cc                   	int3   
  411c0b:	cc                   	int3   
  411c0c:	cc                   	int3   
  411c0d:	cc                   	int3   
  411c0e:	cc                   	int3   
  411c0f:	cc                   	int3   
  411c10:	cc                   	int3   
  411c11:	cc                   	int3   
  411c12:	cc                   	int3   
  411c13:	cc                   	int3   
  411c14:	cc                   	int3   
  411c15:	cc                   	int3   
  411c16:	cc                   	int3   
  411c17:	cc                   	int3   
  411c18:	cc                   	int3   
  411c19:	cc                   	int3   
  411c1a:	cc                   	int3   
  411c1b:	cc                   	int3   
  411c1c:	cc                   	int3   
  411c1d:	cc                   	int3   
  411c1e:	cc                   	int3   
  411c1f:	cc                   	int3   
  411c20:	cc                   	int3   
  411c21:	cc                   	int3   
  411c22:	cc                   	int3   
  411c23:	cc                   	int3   
  411c24:	cc                   	int3   
  411c25:	cc                   	int3   
  411c26:	cc                   	int3   
  411c27:	cc                   	int3   
  411c28:	cc                   	int3   
  411c29:	cc                   	int3   
  411c2a:	cc                   	int3   
  411c2b:	cc                   	int3   
  411c2c:	cc                   	int3   
  411c2d:	cc                   	int3   
  411c2e:	cc                   	int3   
  411c2f:	cc                   	int3   
  411c30:	cc                   	int3   
  411c31:	cc                   	int3   
  411c32:	cc                   	int3   
  411c33:	cc                   	int3   
  411c34:	cc                   	int3   
  411c35:	cc                   	int3   
  411c36:	cc                   	int3   
  411c37:	cc                   	int3   
  411c38:	cc                   	int3   
  411c39:	cc                   	int3   
  411c3a:	cc                   	int3   
  411c3b:	cc                   	int3   
  411c3c:	cc                   	int3   
  411c3d:	cc                   	int3   
  411c3e:	cc                   	int3   
  411c3f:	cc                   	int3   
  411c40:	cc                   	int3   
  411c41:	cc                   	int3   
  411c42:	cc                   	int3   
  411c43:	cc                   	int3   
  411c44:	cc                   	int3   
  411c45:	cc                   	int3   
  411c46:	cc                   	int3   
  411c47:	cc                   	int3   
  411c48:	cc                   	int3   
  411c49:	cc                   	int3   
  411c4a:	cc                   	int3   
  411c4b:	cc                   	int3   
  411c4c:	cc                   	int3   
  411c4d:	cc                   	int3   
  411c4e:	cc                   	int3   
  411c4f:	cc                   	int3   
  411c50:	cc                   	int3   
  411c51:	cc                   	int3   
  411c52:	cc                   	int3   
  411c53:	cc                   	int3   
  411c54:	cc                   	int3   
  411c55:	cc                   	int3   
  411c56:	cc                   	int3   
  411c57:	cc                   	int3   
  411c58:	cc                   	int3   
  411c59:	cc                   	int3   
  411c5a:	cc                   	int3   
  411c5b:	cc                   	int3   
  411c5c:	cc                   	int3   
  411c5d:	cc                   	int3   
  411c5e:	cc                   	int3   
  411c5f:	cc                   	int3   
  411c60:	cc                   	int3   
  411c61:	cc                   	int3   
  411c62:	cc                   	int3   
  411c63:	cc                   	int3   
  411c64:	cc                   	int3   
  411c65:	cc                   	int3   
  411c66:	cc                   	int3   
  411c67:	cc                   	int3   
  411c68:	cc                   	int3   
  411c69:	cc                   	int3   
  411c6a:	cc                   	int3   
  411c6b:	cc                   	int3   
  411c6c:	cc                   	int3   
  411c6d:	cc                   	int3   
  411c6e:	cc                   	int3   
  411c6f:	cc                   	int3   
  411c70:	cc                   	int3   
  411c71:	cc                   	int3   
  411c72:	cc                   	int3   
  411c73:	cc                   	int3   
  411c74:	cc                   	int3   
  411c75:	cc                   	int3   
  411c76:	cc                   	int3   
  411c77:	cc                   	int3   
  411c78:	cc                   	int3   
  411c79:	cc                   	int3   
  411c7a:	cc                   	int3   
  411c7b:	cc                   	int3   
  411c7c:	cc                   	int3   
  411c7d:	cc                   	int3   
  411c7e:	cc                   	int3   
  411c7f:	cc                   	int3   
  411c80:	cc                   	int3   
  411c81:	cc                   	int3   
  411c82:	cc                   	int3   
  411c83:	cc                   	int3   
  411c84:	cc                   	int3   
  411c85:	cc                   	int3   
  411c86:	cc                   	int3   
  411c87:	cc                   	int3   
  411c88:	cc                   	int3   
  411c89:	cc                   	int3   
  411c8a:	cc                   	int3   
  411c8b:	cc                   	int3   
  411c8c:	cc                   	int3   
  411c8d:	cc                   	int3   
  411c8e:	cc                   	int3   
  411c8f:	cc                   	int3   
  411c90:	cc                   	int3   
  411c91:	cc                   	int3   
  411c92:	cc                   	int3   
  411c93:	cc                   	int3   
  411c94:	cc                   	int3   
  411c95:	cc                   	int3   
  411c96:	cc                   	int3   
  411c97:	cc                   	int3   
  411c98:	cc                   	int3   
  411c99:	cc                   	int3   
  411c9a:	cc                   	int3   
  411c9b:	cc                   	int3   
  411c9c:	cc                   	int3   
  411c9d:	cc                   	int3   
  411c9e:	cc                   	int3   
  411c9f:	cc                   	int3   
  411ca0:	cc                   	int3   
  411ca1:	cc                   	int3   
  411ca2:	cc                   	int3   
  411ca3:	cc                   	int3   
  411ca4:	cc                   	int3   
  411ca5:	cc                   	int3   
  411ca6:	cc                   	int3   
  411ca7:	cc                   	int3   
  411ca8:	cc                   	int3   
  411ca9:	cc                   	int3   
  411caa:	cc                   	int3   
  411cab:	cc                   	int3   
  411cac:	cc                   	int3   
  411cad:	cc                   	int3   
  411cae:	cc                   	int3   
  411caf:	cc                   	int3   
  411cb0:	cc                   	int3   
  411cb1:	cc                   	int3   
  411cb2:	cc                   	int3   
  411cb3:	cc                   	int3   
  411cb4:	cc                   	int3   
  411cb5:	cc                   	int3   
  411cb6:	cc                   	int3   
  411cb7:	cc                   	int3   
  411cb8:	cc                   	int3   
  411cb9:	cc                   	int3   
  411cba:	cc                   	int3   
  411cbb:	cc                   	int3   
  411cbc:	cc                   	int3   
  411cbd:	cc                   	int3   
  411cbe:	cc                   	int3   
  411cbf:	cc                   	int3   
  411cc0:	cc                   	int3   
  411cc1:	cc                   	int3   
  411cc2:	cc                   	int3   
  411cc3:	cc                   	int3   
  411cc4:	cc                   	int3   
  411cc5:	cc                   	int3   
  411cc6:	cc                   	int3   
  411cc7:	cc                   	int3   
  411cc8:	cc                   	int3   
  411cc9:	cc                   	int3   
  411cca:	cc                   	int3   
  411ccb:	cc                   	int3   
  411ccc:	cc                   	int3   
  411ccd:	cc                   	int3   
  411cce:	cc                   	int3   
  411ccf:	cc                   	int3   
  411cd0:	cc                   	int3   
  411cd1:	cc                   	int3   
  411cd2:	cc                   	int3   
  411cd3:	cc                   	int3   
  411cd4:	cc                   	int3   
  411cd5:	cc                   	int3   
  411cd6:	cc                   	int3   
  411cd7:	cc                   	int3   
  411cd8:	cc                   	int3   
  411cd9:	cc                   	int3   
  411cda:	cc                   	int3   
  411cdb:	cc                   	int3   
  411cdc:	cc                   	int3   
  411cdd:	cc                   	int3   
  411cde:	cc                   	int3   
  411cdf:	cc                   	int3   
  411ce0:	cc                   	int3   
  411ce1:	cc                   	int3   
  411ce2:	cc                   	int3   
  411ce3:	cc                   	int3   
  411ce4:	cc                   	int3   
  411ce5:	cc                   	int3   
  411ce6:	cc                   	int3   
  411ce7:	cc                   	int3   
  411ce8:	cc                   	int3   
  411ce9:	cc                   	int3   
  411cea:	cc                   	int3   
  411ceb:	cc                   	int3   
  411cec:	cc                   	int3   
  411ced:	cc                   	int3   
  411cee:	cc                   	int3   
  411cef:	cc                   	int3   
  411cf0:	cc                   	int3   
  411cf1:	cc                   	int3   
  411cf2:	cc                   	int3   
  411cf3:	cc                   	int3   
  411cf4:	cc                   	int3   
  411cf5:	cc                   	int3   
  411cf6:	cc                   	int3   
  411cf7:	cc                   	int3   
  411cf8:	cc                   	int3   
  411cf9:	cc                   	int3   
  411cfa:	cc                   	int3   
  411cfb:	cc                   	int3   
  411cfc:	cc                   	int3   
  411cfd:	cc                   	int3   
  411cfe:	cc                   	int3   
  411cff:	cc                   	int3   
  411d00:	cc                   	int3   
  411d01:	cc                   	int3   
  411d02:	cc                   	int3   
  411d03:	cc                   	int3   
  411d04:	cc                   	int3   
  411d05:	cc                   	int3   
  411d06:	cc                   	int3   
  411d07:	cc                   	int3   
  411d08:	cc                   	int3   
  411d09:	cc                   	int3   
  411d0a:	cc                   	int3   
  411d0b:	cc                   	int3   
  411d0c:	cc                   	int3   
  411d0d:	cc                   	int3   
  411d0e:	cc                   	int3   
  411d0f:	cc                   	int3   
  411d10:	cc                   	int3   
  411d11:	cc                   	int3   
  411d12:	cc                   	int3   
  411d13:	cc                   	int3   
  411d14:	cc                   	int3   
  411d15:	cc                   	int3   
  411d16:	cc                   	int3   
  411d17:	cc                   	int3   
  411d18:	cc                   	int3   
  411d19:	cc                   	int3   
  411d1a:	cc                   	int3   
  411d1b:	cc                   	int3   
  411d1c:	cc                   	int3   
  411d1d:	cc                   	int3   
  411d1e:	cc                   	int3   
  411d1f:	cc                   	int3   
  411d20:	cc                   	int3   
  411d21:	cc                   	int3   
  411d22:	cc                   	int3   
  411d23:	cc                   	int3   
  411d24:	cc                   	int3   
  411d25:	cc                   	int3   
  411d26:	cc                   	int3   
  411d27:	cc                   	int3   
  411d28:	cc                   	int3   
  411d29:	cc                   	int3   
  411d2a:	cc                   	int3   
  411d2b:	cc                   	int3   
  411d2c:	cc                   	int3   
  411d2d:	cc                   	int3   
  411d2e:	cc                   	int3   
  411d2f:	cc                   	int3   
  411d30:	cc                   	int3   
  411d31:	cc                   	int3   
  411d32:	cc                   	int3   
  411d33:	cc                   	int3   
  411d34:	cc                   	int3   
  411d35:	cc                   	int3   
  411d36:	cc                   	int3   
  411d37:	cc                   	int3   
  411d38:	cc                   	int3   
  411d39:	cc                   	int3   
  411d3a:	cc                   	int3   
  411d3b:	cc                   	int3   
  411d3c:	cc                   	int3   
  411d3d:	cc                   	int3   
  411d3e:	cc                   	int3   
  411d3f:	cc                   	int3   
  411d40:	cc                   	int3   
  411d41:	cc                   	int3   
  411d42:	cc                   	int3   
  411d43:	cc                   	int3   
  411d44:	cc                   	int3   
  411d45:	cc                   	int3   
  411d46:	cc                   	int3   
  411d47:	cc                   	int3   
  411d48:	cc                   	int3   
  411d49:	cc                   	int3   
  411d4a:	cc                   	int3   
  411d4b:	cc                   	int3   
  411d4c:	cc                   	int3   
  411d4d:	cc                   	int3   
  411d4e:	cc                   	int3   
  411d4f:	cc                   	int3   
  411d50:	cc                   	int3   
  411d51:	cc                   	int3   
  411d52:	cc                   	int3   
  411d53:	cc                   	int3   
  411d54:	cc                   	int3   
  411d55:	cc                   	int3   
  411d56:	cc                   	int3   
  411d57:	cc                   	int3   
  411d58:	cc                   	int3   
  411d59:	cc                   	int3   
  411d5a:	cc                   	int3   
  411d5b:	cc                   	int3   
  411d5c:	cc                   	int3   
  411d5d:	cc                   	int3   
  411d5e:	cc                   	int3   
  411d5f:	cc                   	int3   
  411d60:	cc                   	int3   
  411d61:	cc                   	int3   
  411d62:	cc                   	int3   
  411d63:	cc                   	int3   
  411d64:	cc                   	int3   
  411d65:	cc                   	int3   
  411d66:	cc                   	int3   
  411d67:	cc                   	int3   
  411d68:	cc                   	int3   
  411d69:	cc                   	int3   
  411d6a:	cc                   	int3   
  411d6b:	cc                   	int3   
  411d6c:	cc                   	int3   
  411d6d:	cc                   	int3   
  411d6e:	cc                   	int3   
  411d6f:	cc                   	int3   
  411d70:	cc                   	int3   
  411d71:	cc                   	int3   
  411d72:	cc                   	int3   
  411d73:	cc                   	int3   
  411d74:	cc                   	int3   
  411d75:	cc                   	int3   
  411d76:	cc                   	int3   
  411d77:	cc                   	int3   
  411d78:	cc                   	int3   
  411d79:	cc                   	int3   
  411d7a:	cc                   	int3   
  411d7b:	cc                   	int3   
  411d7c:	cc                   	int3   
  411d7d:	cc                   	int3   
  411d7e:	cc                   	int3   
  411d7f:	cc                   	int3   
  411d80:	cc                   	int3   
  411d81:	cc                   	int3   
  411d82:	cc                   	int3   
  411d83:	cc                   	int3   
  411d84:	cc                   	int3   
  411d85:	cc                   	int3   
  411d86:	cc                   	int3   
  411d87:	cc                   	int3   
  411d88:	cc                   	int3   
  411d89:	cc                   	int3   
  411d8a:	cc                   	int3   
  411d8b:	cc                   	int3   
  411d8c:	cc                   	int3   
  411d8d:	cc                   	int3   
  411d8e:	cc                   	int3   
  411d8f:	cc                   	int3   
  411d90:	cc                   	int3   
  411d91:	cc                   	int3   
  411d92:	cc                   	int3   
  411d93:	cc                   	int3   
  411d94:	cc                   	int3   
  411d95:	cc                   	int3   
  411d96:	cc                   	int3   
  411d97:	cc                   	int3   
  411d98:	cc                   	int3   
  411d99:	cc                   	int3   
  411d9a:	cc                   	int3   
  411d9b:	cc                   	int3   
  411d9c:	cc                   	int3   
  411d9d:	cc                   	int3   
  411d9e:	cc                   	int3   
  411d9f:	cc                   	int3   
  411da0:	cc                   	int3   
  411da1:	cc                   	int3   
  411da2:	cc                   	int3   
  411da3:	cc                   	int3   
  411da4:	cc                   	int3   
  411da5:	cc                   	int3   
  411da6:	cc                   	int3   
  411da7:	cc                   	int3   
  411da8:	cc                   	int3   
  411da9:	cc                   	int3   
  411daa:	cc                   	int3   
  411dab:	cc                   	int3   
  411dac:	cc                   	int3   
  411dad:	cc                   	int3   
  411dae:	cc                   	int3   
  411daf:	cc                   	int3   
  411db0:	cc                   	int3   
  411db1:	cc                   	int3   
  411db2:	cc                   	int3   
  411db3:	cc                   	int3   
  411db4:	cc                   	int3   
  411db5:	cc                   	int3   
  411db6:	cc                   	int3   
  411db7:	cc                   	int3   
  411db8:	cc                   	int3   
  411db9:	cc                   	int3   
  411dba:	cc                   	int3   
  411dbb:	cc                   	int3   
  411dbc:	cc                   	int3   
  411dbd:	cc                   	int3   
  411dbe:	cc                   	int3   
  411dbf:	cc                   	int3   
  411dc0:	cc                   	int3   
  411dc1:	cc                   	int3   
  411dc2:	cc                   	int3   
  411dc3:	cc                   	int3   
  411dc4:	cc                   	int3   
  411dc5:	cc                   	int3   
  411dc6:	cc                   	int3   
  411dc7:	cc                   	int3   
  411dc8:	cc                   	int3   
  411dc9:	cc                   	int3   
  411dca:	cc                   	int3   
  411dcb:	cc                   	int3   
  411dcc:	cc                   	int3   
  411dcd:	cc                   	int3   
  411dce:	cc                   	int3   
  411dcf:	cc                   	int3   
  411dd0:	cc                   	int3   
  411dd1:	cc                   	int3   
  411dd2:	cc                   	int3   
  411dd3:	cc                   	int3   
  411dd4:	cc                   	int3   
  411dd5:	cc                   	int3   
  411dd6:	cc                   	int3   
  411dd7:	cc                   	int3   
  411dd8:	cc                   	int3   
  411dd9:	cc                   	int3   
  411dda:	cc                   	int3   
  411ddb:	cc                   	int3   
  411ddc:	cc                   	int3   
  411ddd:	cc                   	int3   
  411dde:	cc                   	int3   
  411ddf:	cc                   	int3   
  411de0:	cc                   	int3   
  411de1:	cc                   	int3   
  411de2:	cc                   	int3   
  411de3:	cc                   	int3   
  411de4:	cc                   	int3   
  411de5:	cc                   	int3   
  411de6:	cc                   	int3   
  411de7:	cc                   	int3   
  411de8:	cc                   	int3   
  411de9:	cc                   	int3   
  411dea:	cc                   	int3   
  411deb:	cc                   	int3   
  411dec:	cc                   	int3   
  411ded:	cc                   	int3   
  411dee:	cc                   	int3   
  411def:	cc                   	int3   
  411df0:	cc                   	int3   
  411df1:	cc                   	int3   
  411df2:	cc                   	int3   
  411df3:	cc                   	int3   
  411df4:	cc                   	int3   
  411df5:	cc                   	int3   
  411df6:	cc                   	int3   
  411df7:	cc                   	int3   
  411df8:	cc                   	int3   
  411df9:	cc                   	int3   
  411dfa:	cc                   	int3   
  411dfb:	cc                   	int3   
  411dfc:	cc                   	int3   
  411dfd:	cc                   	int3   
  411dfe:	cc                   	int3   
  411dff:	cc                   	int3   
  411e00:	cc                   	int3   
  411e01:	cc                   	int3   
  411e02:	cc                   	int3   
  411e03:	cc                   	int3   
  411e04:	cc                   	int3   
  411e05:	cc                   	int3   
  411e06:	cc                   	int3   
  411e07:	cc                   	int3   
  411e08:	cc                   	int3   
  411e09:	cc                   	int3   
  411e0a:	cc                   	int3   
  411e0b:	cc                   	int3   
  411e0c:	cc                   	int3   
  411e0d:	cc                   	int3   
  411e0e:	cc                   	int3   
  411e0f:	cc                   	int3   
  411e10:	cc                   	int3   
  411e11:	cc                   	int3   
  411e12:	cc                   	int3   
  411e13:	cc                   	int3   
  411e14:	cc                   	int3   
  411e15:	cc                   	int3   
  411e16:	cc                   	int3   
  411e17:	cc                   	int3   
  411e18:	cc                   	int3   
  411e19:	cc                   	int3   
  411e1a:	cc                   	int3   
  411e1b:	cc                   	int3   
  411e1c:	cc                   	int3   
  411e1d:	cc                   	int3   
  411e1e:	cc                   	int3   
  411e1f:	cc                   	int3   
  411e20:	cc                   	int3   
  411e21:	cc                   	int3   
  411e22:	cc                   	int3   
  411e23:	cc                   	int3   
  411e24:	cc                   	int3   
  411e25:	cc                   	int3   
  411e26:	cc                   	int3   
  411e27:	cc                   	int3   
  411e28:	cc                   	int3   
  411e29:	cc                   	int3   
  411e2a:	cc                   	int3   
  411e2b:	cc                   	int3   
  411e2c:	cc                   	int3   
  411e2d:	cc                   	int3   
  411e2e:	cc                   	int3   
  411e2f:	cc                   	int3   
  411e30:	cc                   	int3   
  411e31:	cc                   	int3   
  411e32:	cc                   	int3   
  411e33:	cc                   	int3   
  411e34:	cc                   	int3   
  411e35:	cc                   	int3   
  411e36:	cc                   	int3   
  411e37:	cc                   	int3   
  411e38:	cc                   	int3   
  411e39:	cc                   	int3   
  411e3a:	cc                   	int3   
  411e3b:	cc                   	int3   
  411e3c:	cc                   	int3   
  411e3d:	cc                   	int3   
  411e3e:	cc                   	int3   
  411e3f:	cc                   	int3   
  411e40:	cc                   	int3   
  411e41:	cc                   	int3   
  411e42:	cc                   	int3   
  411e43:	cc                   	int3   
  411e44:	cc                   	int3   
  411e45:	cc                   	int3   
  411e46:	cc                   	int3   
  411e47:	cc                   	int3   
  411e48:	cc                   	int3   
  411e49:	cc                   	int3   
  411e4a:	cc                   	int3   
  411e4b:	cc                   	int3   
  411e4c:	cc                   	int3   
  411e4d:	cc                   	int3   
  411e4e:	cc                   	int3   
  411e4f:	cc                   	int3   
  411e50:	cc                   	int3   
  411e51:	cc                   	int3   
  411e52:	cc                   	int3   
  411e53:	cc                   	int3   
  411e54:	cc                   	int3   
  411e55:	cc                   	int3   
  411e56:	cc                   	int3   
  411e57:	cc                   	int3   
  411e58:	cc                   	int3   
  411e59:	cc                   	int3   
  411e5a:	cc                   	int3   
  411e5b:	cc                   	int3   
  411e5c:	cc                   	int3   
  411e5d:	cc                   	int3   
  411e5e:	cc                   	int3   
  411e5f:	cc                   	int3   
  411e60:	cc                   	int3   
  411e61:	cc                   	int3   
  411e62:	cc                   	int3   
  411e63:	cc                   	int3   
  411e64:	cc                   	int3   
  411e65:	cc                   	int3   
  411e66:	cc                   	int3   
  411e67:	cc                   	int3   
  411e68:	cc                   	int3   
  411e69:	cc                   	int3   
  411e6a:	cc                   	int3   
  411e6b:	cc                   	int3   
  411e6c:	cc                   	int3   
  411e6d:	cc                   	int3   
  411e6e:	cc                   	int3   
  411e6f:	cc                   	int3   
  411e70:	cc                   	int3   
  411e71:	cc                   	int3   
  411e72:	cc                   	int3   
  411e73:	cc                   	int3   
  411e74:	cc                   	int3   
  411e75:	cc                   	int3   
  411e76:	cc                   	int3   
  411e77:	cc                   	int3   
  411e78:	cc                   	int3   
  411e79:	cc                   	int3   
  411e7a:	cc                   	int3   
  411e7b:	cc                   	int3   
  411e7c:	cc                   	int3   
  411e7d:	cc                   	int3   
  411e7e:	cc                   	int3   
  411e7f:	cc                   	int3   
  411e80:	cc                   	int3   
  411e81:	cc                   	int3   
  411e82:	cc                   	int3   
  411e83:	cc                   	int3   
  411e84:	cc                   	int3   
  411e85:	cc                   	int3   
  411e86:	cc                   	int3   
  411e87:	cc                   	int3   
  411e88:	cc                   	int3   
  411e89:	cc                   	int3   
  411e8a:	cc                   	int3   
  411e8b:	cc                   	int3   
  411e8c:	cc                   	int3   
  411e8d:	cc                   	int3   
  411e8e:	cc                   	int3   
  411e8f:	cc                   	int3   
  411e90:	cc                   	int3   
  411e91:	cc                   	int3   
  411e92:	cc                   	int3   
  411e93:	cc                   	int3   
  411e94:	cc                   	int3   
  411e95:	cc                   	int3   
  411e96:	cc                   	int3   
  411e97:	cc                   	int3   
  411e98:	cc                   	int3   
  411e99:	cc                   	int3   
  411e9a:	cc                   	int3   
  411e9b:	cc                   	int3   
  411e9c:	cc                   	int3   
  411e9d:	cc                   	int3   
  411e9e:	cc                   	int3   
  411e9f:	cc                   	int3   
  411ea0:	cc                   	int3   
  411ea1:	cc                   	int3   
  411ea2:	cc                   	int3   
  411ea3:	cc                   	int3   
  411ea4:	cc                   	int3   
  411ea5:	cc                   	int3   
  411ea6:	cc                   	int3   
  411ea7:	cc                   	int3   
  411ea8:	cc                   	int3   
  411ea9:	cc                   	int3   
  411eaa:	cc                   	int3   
  411eab:	cc                   	int3   
  411eac:	cc                   	int3   
  411ead:	cc                   	int3   
  411eae:	cc                   	int3   
  411eaf:	cc                   	int3   
  411eb0:	cc                   	int3   
  411eb1:	cc                   	int3   
  411eb2:	cc                   	int3   
  411eb3:	cc                   	int3   
  411eb4:	cc                   	int3   
  411eb5:	cc                   	int3   
  411eb6:	cc                   	int3   
  411eb7:	cc                   	int3   
  411eb8:	cc                   	int3   
  411eb9:	cc                   	int3   
  411eba:	cc                   	int3   
  411ebb:	cc                   	int3   
  411ebc:	cc                   	int3   
  411ebd:	cc                   	int3   
  411ebe:	cc                   	int3   
  411ebf:	cc                   	int3   
  411ec0:	cc                   	int3   
  411ec1:	cc                   	int3   
  411ec2:	cc                   	int3   
  411ec3:	cc                   	int3   
  411ec4:	cc                   	int3   
  411ec5:	cc                   	int3   
  411ec6:	cc                   	int3   
  411ec7:	cc                   	int3   
  411ec8:	cc                   	int3   
  411ec9:	cc                   	int3   
  411eca:	cc                   	int3   
  411ecb:	cc                   	int3   
  411ecc:	cc                   	int3   
  411ecd:	cc                   	int3   
  411ece:	cc                   	int3   
  411ecf:	cc                   	int3   
  411ed0:	cc                   	int3   
  411ed1:	cc                   	int3   
  411ed2:	cc                   	int3   
  411ed3:	cc                   	int3   
  411ed4:	cc                   	int3   
  411ed5:	cc                   	int3   
  411ed6:	cc                   	int3   
  411ed7:	cc                   	int3   
  411ed8:	cc                   	int3   
  411ed9:	cc                   	int3   
  411eda:	cc                   	int3   
  411edb:	cc                   	int3   
  411edc:	cc                   	int3   
  411edd:	cc                   	int3   
  411ede:	cc                   	int3   
  411edf:	cc                   	int3   
  411ee0:	cc                   	int3   
  411ee1:	cc                   	int3   
  411ee2:	cc                   	int3   
  411ee3:	cc                   	int3   
  411ee4:	cc                   	int3   
  411ee5:	cc                   	int3   
  411ee6:	cc                   	int3   
  411ee7:	cc                   	int3   
  411ee8:	cc                   	int3   
  411ee9:	cc                   	int3   
  411eea:	cc                   	int3   
  411eeb:	cc                   	int3   
  411eec:	cc                   	int3   
  411eed:	cc                   	int3   
  411eee:	cc                   	int3   
  411eef:	cc                   	int3   
  411ef0:	cc                   	int3   
  411ef1:	cc                   	int3   
  411ef2:	cc                   	int3   
  411ef3:	cc                   	int3   
  411ef4:	cc                   	int3   
  411ef5:	cc                   	int3   
  411ef6:	cc                   	int3   
  411ef7:	cc                   	int3   
  411ef8:	cc                   	int3   
  411ef9:	cc                   	int3   
  411efa:	cc                   	int3   
  411efb:	cc                   	int3   
  411efc:	cc                   	int3   
  411efd:	cc                   	int3   
  411efe:	cc                   	int3   
  411eff:	cc                   	int3   
  411f00:	cc                   	int3   
  411f01:	cc                   	int3   
  411f02:	cc                   	int3   
  411f03:	cc                   	int3   
  411f04:	cc                   	int3   
  411f05:	cc                   	int3   
  411f06:	cc                   	int3   
  411f07:	cc                   	int3   
  411f08:	cc                   	int3   
  411f09:	cc                   	int3   
  411f0a:	cc                   	int3   
  411f0b:	cc                   	int3   
  411f0c:	cc                   	int3   
  411f0d:	cc                   	int3   
  411f0e:	cc                   	int3   
  411f0f:	cc                   	int3   
  411f10:	cc                   	int3   
  411f11:	cc                   	int3   
  411f12:	cc                   	int3   
  411f13:	cc                   	int3   
  411f14:	cc                   	int3   
  411f15:	cc                   	int3   
  411f16:	cc                   	int3   
  411f17:	cc                   	int3   
  411f18:	cc                   	int3   
  411f19:	cc                   	int3   
  411f1a:	cc                   	int3   
  411f1b:	cc                   	int3   
  411f1c:	cc                   	int3   
  411f1d:	cc                   	int3   
  411f1e:	cc                   	int3   
  411f1f:	cc                   	int3   
  411f20:	cc                   	int3   
  411f21:	cc                   	int3   
  411f22:	cc                   	int3   
  411f23:	cc                   	int3   
  411f24:	cc                   	int3   
  411f25:	cc                   	int3   
  411f26:	cc                   	int3   
  411f27:	cc                   	int3   
  411f28:	cc                   	int3   
  411f29:	cc                   	int3   
  411f2a:	cc                   	int3   
  411f2b:	cc                   	int3   
  411f2c:	cc                   	int3   
  411f2d:	cc                   	int3   
  411f2e:	cc                   	int3   
  411f2f:	cc                   	int3   
  411f30:	cc                   	int3   
  411f31:	cc                   	int3   
  411f32:	cc                   	int3   
  411f33:	cc                   	int3   
  411f34:	cc                   	int3   
  411f35:	cc                   	int3   
  411f36:	cc                   	int3   
  411f37:	cc                   	int3   
  411f38:	cc                   	int3   
  411f39:	cc                   	int3   
  411f3a:	cc                   	int3   
  411f3b:	cc                   	int3   
  411f3c:	cc                   	int3   
  411f3d:	cc                   	int3   
  411f3e:	cc                   	int3   
  411f3f:	cc                   	int3   
  411f40:	cc                   	int3   
  411f41:	cc                   	int3   
  411f42:	cc                   	int3   
  411f43:	cc                   	int3   
  411f44:	cc                   	int3   
  411f45:	cc                   	int3   
  411f46:	cc                   	int3   
  411f47:	cc                   	int3   
  411f48:	cc                   	int3   
  411f49:	cc                   	int3   
  411f4a:	cc                   	int3   
  411f4b:	cc                   	int3   
  411f4c:	cc                   	int3   
  411f4d:	cc                   	int3   
  411f4e:	cc                   	int3   
  411f4f:	cc                   	int3   
  411f50:	cc                   	int3   
  411f51:	cc                   	int3   
  411f52:	cc                   	int3   
  411f53:	cc                   	int3   
  411f54:	cc                   	int3   
  411f55:	cc                   	int3   
  411f56:	cc                   	int3   
  411f57:	cc                   	int3   
  411f58:	cc                   	int3   
  411f59:	cc                   	int3   
  411f5a:	cc                   	int3   
  411f5b:	cc                   	int3   
  411f5c:	cc                   	int3   
  411f5d:	cc                   	int3   
  411f5e:	cc                   	int3   
  411f5f:	cc                   	int3   
  411f60:	cc                   	int3   
  411f61:	cc                   	int3   
  411f62:	cc                   	int3   
  411f63:	cc                   	int3   
  411f64:	cc                   	int3   
  411f65:	cc                   	int3   
  411f66:	cc                   	int3   
  411f67:	cc                   	int3   
  411f68:	cc                   	int3   
  411f69:	cc                   	int3   
  411f6a:	cc                   	int3   
  411f6b:	cc                   	int3   
  411f6c:	cc                   	int3   
  411f6d:	cc                   	int3   
  411f6e:	cc                   	int3   
  411f6f:	cc                   	int3   
  411f70:	cc                   	int3   
  411f71:	cc                   	int3   
  411f72:	cc                   	int3   
  411f73:	cc                   	int3   
  411f74:	cc                   	int3   
  411f75:	cc                   	int3   
  411f76:	cc                   	int3   
  411f77:	cc                   	int3   
  411f78:	cc                   	int3   
  411f79:	cc                   	int3   
  411f7a:	cc                   	int3   
  411f7b:	cc                   	int3   
  411f7c:	cc                   	int3   
  411f7d:	cc                   	int3   
  411f7e:	cc                   	int3   
  411f7f:	cc                   	int3   
  411f80:	cc                   	int3   
  411f81:	cc                   	int3   
  411f82:	cc                   	int3   
  411f83:	cc                   	int3   
  411f84:	cc                   	int3   
  411f85:	cc                   	int3   
  411f86:	cc                   	int3   
  411f87:	cc                   	int3   
  411f88:	cc                   	int3   
  411f89:	cc                   	int3   
  411f8a:	cc                   	int3   
  411f8b:	cc                   	int3   
  411f8c:	cc                   	int3   
  411f8d:	cc                   	int3   
  411f8e:	cc                   	int3   
  411f8f:	cc                   	int3   
  411f90:	cc                   	int3   
  411f91:	cc                   	int3   
  411f92:	cc                   	int3   
  411f93:	cc                   	int3   
  411f94:	cc                   	int3   
  411f95:	cc                   	int3   
  411f96:	cc                   	int3   
  411f97:	cc                   	int3   
  411f98:	cc                   	int3   
  411f99:	cc                   	int3   
  411f9a:	cc                   	int3   
  411f9b:	cc                   	int3   
  411f9c:	cc                   	int3   
  411f9d:	cc                   	int3   
  411f9e:	cc                   	int3   
  411f9f:	cc                   	int3   
  411fa0:	cc                   	int3   
  411fa1:	cc                   	int3   
  411fa2:	cc                   	int3   
  411fa3:	cc                   	int3   
  411fa4:	cc                   	int3   
  411fa5:	cc                   	int3   
  411fa6:	cc                   	int3   
  411fa7:	cc                   	int3   
  411fa8:	cc                   	int3   
  411fa9:	cc                   	int3   
  411faa:	cc                   	int3   
  411fab:	cc                   	int3   
  411fac:	cc                   	int3   
  411fad:	cc                   	int3   
  411fae:	cc                   	int3   
  411faf:	cc                   	int3   
  411fb0:	cc                   	int3   
  411fb1:	cc                   	int3   
  411fb2:	cc                   	int3   
  411fb3:	cc                   	int3   
  411fb4:	cc                   	int3   
  411fb5:	cc                   	int3   
  411fb6:	cc                   	int3   
  411fb7:	cc                   	int3   
  411fb8:	cc                   	int3   
  411fb9:	cc                   	int3   
  411fba:	cc                   	int3   
  411fbb:	cc                   	int3   
  411fbc:	cc                   	int3   
  411fbd:	cc                   	int3   
  411fbe:	cc                   	int3   
  411fbf:	cc                   	int3   
  411fc0:	cc                   	int3   
  411fc1:	cc                   	int3   
  411fc2:	cc                   	int3   
  411fc3:	cc                   	int3   
  411fc4:	cc                   	int3   
  411fc5:	cc                   	int3   
  411fc6:	cc                   	int3   
  411fc7:	cc                   	int3   
  411fc8:	cc                   	int3   
  411fc9:	cc                   	int3   
  411fca:	cc                   	int3   
  411fcb:	cc                   	int3   
  411fcc:	cc                   	int3   
  411fcd:	cc                   	int3   
  411fce:	cc                   	int3   
  411fcf:	cc                   	int3   
  411fd0:	cc                   	int3   
  411fd1:	cc                   	int3   
  411fd2:	cc                   	int3   
  411fd3:	cc                   	int3   
  411fd4:	cc                   	int3   
  411fd5:	cc                   	int3   
  411fd6:	cc                   	int3   
  411fd7:	cc                   	int3   
  411fd8:	cc                   	int3   
  411fd9:	cc                   	int3   
  411fda:	cc                   	int3   
  411fdb:	cc                   	int3   
  411fdc:	cc                   	int3   
  411fdd:	cc                   	int3   
  411fde:	cc                   	int3   
  411fdf:	cc                   	int3   
  411fe0:	cc                   	int3   
  411fe1:	cc                   	int3   
  411fe2:	cc                   	int3   
  411fe3:	cc                   	int3   
  411fe4:	cc                   	int3   
  411fe5:	cc                   	int3   
  411fe6:	cc                   	int3   
  411fe7:	cc                   	int3   
  411fe8:	cc                   	int3   
  411fe9:	cc                   	int3   
  411fea:	cc                   	int3   
  411feb:	cc                   	int3   
  411fec:	cc                   	int3   
  411fed:	cc                   	int3   
  411fee:	cc                   	int3   
  411fef:	cc                   	int3   
  411ff0:	cc                   	int3   
  411ff1:	cc                   	int3   
  411ff2:	cc                   	int3   
  411ff3:	cc                   	int3   
  411ff4:	cc                   	int3   
  411ff5:	cc                   	int3   
  411ff6:	cc                   	int3   
  411ff7:	cc                   	int3   
  411ff8:	cc                   	int3   
  411ff9:	cc                   	int3   
  411ffa:	cc                   	int3   
  411ffb:	cc                   	int3   
  411ffc:	cc                   	int3   
  411ffd:	cc                   	int3   
  411ffe:	cc                   	int3   
  411fff:	cc                   	int3   
  412000:	cc                   	int3   
  412001:	cc                   	int3   
  412002:	cc                   	int3   
  412003:	cc                   	int3   
  412004:	cc                   	int3   
  412005:	cc                   	int3   
  412006:	cc                   	int3   
  412007:	cc                   	int3   
  412008:	cc                   	int3   
  412009:	cc                   	int3   
  41200a:	cc                   	int3   
  41200b:	cc                   	int3   
  41200c:	cc                   	int3   
  41200d:	cc                   	int3   
  41200e:	cc                   	int3   
  41200f:	cc                   	int3   
  412010:	cc                   	int3   
  412011:	cc                   	int3   
  412012:	cc                   	int3   
  412013:	cc                   	int3   
  412014:	cc                   	int3   
  412015:	cc                   	int3   
  412016:	cc                   	int3   
  412017:	cc                   	int3   
  412018:	cc                   	int3   
  412019:	cc                   	int3   
  41201a:	cc                   	int3   
  41201b:	cc                   	int3   
  41201c:	cc                   	int3   
  41201d:	cc                   	int3   
  41201e:	cc                   	int3   
  41201f:	cc                   	int3   
  412020:	cc                   	int3   
  412021:	cc                   	int3   
  412022:	cc                   	int3   
  412023:	cc                   	int3   
  412024:	cc                   	int3   
  412025:	cc                   	int3   
  412026:	cc                   	int3   
  412027:	cc                   	int3   
  412028:	cc                   	int3   
  412029:	cc                   	int3   
  41202a:	cc                   	int3   
  41202b:	cc                   	int3   
  41202c:	cc                   	int3   
  41202d:	cc                   	int3   
  41202e:	cc                   	int3   
  41202f:	cc                   	int3   
  412030:	cc                   	int3   
  412031:	cc                   	int3   
  412032:	cc                   	int3   
  412033:	cc                   	int3   
  412034:	cc                   	int3   
  412035:	cc                   	int3   
  412036:	cc                   	int3   
  412037:	cc                   	int3   
  412038:	cc                   	int3   
  412039:	cc                   	int3   
  41203a:	cc                   	int3   
  41203b:	cc                   	int3   
  41203c:	cc                   	int3   
  41203d:	cc                   	int3   
  41203e:	cc                   	int3   
  41203f:	cc                   	int3   
  412040:	cc                   	int3   
  412041:	cc                   	int3   
  412042:	cc                   	int3   
  412043:	cc                   	int3   
  412044:	cc                   	int3   
  412045:	cc                   	int3   
  412046:	cc                   	int3   
  412047:	cc                   	int3   
  412048:	cc                   	int3   
  412049:	cc                   	int3   
  41204a:	cc                   	int3   
  41204b:	cc                   	int3   
  41204c:	cc                   	int3   
  41204d:	cc                   	int3   
  41204e:	cc                   	int3   
  41204f:	cc                   	int3   
  412050:	cc                   	int3   
  412051:	cc                   	int3   
  412052:	cc                   	int3   
  412053:	cc                   	int3   
  412054:	cc                   	int3   
  412055:	cc                   	int3   
  412056:	cc                   	int3   
  412057:	cc                   	int3   
  412058:	cc                   	int3   
  412059:	cc                   	int3   
  41205a:	cc                   	int3   
  41205b:	cc                   	int3   
  41205c:	cc                   	int3   
  41205d:	cc                   	int3   
  41205e:	cc                   	int3   
  41205f:	cc                   	int3   
  412060:	cc                   	int3   
  412061:	cc                   	int3   
  412062:	cc                   	int3   
  412063:	cc                   	int3   
  412064:	cc                   	int3   
  412065:	cc                   	int3   
  412066:	cc                   	int3   
  412067:	cc                   	int3   
  412068:	cc                   	int3   
  412069:	cc                   	int3   
  41206a:	cc                   	int3   
  41206b:	cc                   	int3   
  41206c:	cc                   	int3   
  41206d:	cc                   	int3   
  41206e:	cc                   	int3   
  41206f:	cc                   	int3   
  412070:	cc                   	int3   
  412071:	cc                   	int3   
  412072:	cc                   	int3   
  412073:	cc                   	int3   
  412074:	cc                   	int3   
  412075:	cc                   	int3   
  412076:	cc                   	int3   
  412077:	cc                   	int3   
  412078:	cc                   	int3   
  412079:	cc                   	int3   
  41207a:	cc                   	int3   
  41207b:	cc                   	int3   
  41207c:	cc                   	int3   
  41207d:	cc                   	int3   
  41207e:	cc                   	int3   
  41207f:	cc                   	int3   
  412080:	cc                   	int3   
  412081:	cc                   	int3   
  412082:	cc                   	int3   
  412083:	cc                   	int3   
  412084:	cc                   	int3   
  412085:	cc                   	int3   
  412086:	cc                   	int3   
  412087:	cc                   	int3   
  412088:	cc                   	int3   
  412089:	cc                   	int3   
  41208a:	cc                   	int3   
  41208b:	cc                   	int3   
  41208c:	cc                   	int3   
  41208d:	cc                   	int3   
  41208e:	cc                   	int3   
  41208f:	cc                   	int3   
  412090:	cc                   	int3   
  412091:	cc                   	int3   
  412092:	cc                   	int3   
  412093:	cc                   	int3   
  412094:	cc                   	int3   
  412095:	cc                   	int3   
  412096:	cc                   	int3   
  412097:	cc                   	int3   
  412098:	cc                   	int3   
  412099:	cc                   	int3   
  41209a:	cc                   	int3   
  41209b:	cc                   	int3   
  41209c:	cc                   	int3   
  41209d:	cc                   	int3   
  41209e:	cc                   	int3   
  41209f:	cc                   	int3   
  4120a0:	cc                   	int3   
  4120a1:	cc                   	int3   
  4120a2:	cc                   	int3   
  4120a3:	cc                   	int3   
  4120a4:	cc                   	int3   
  4120a5:	cc                   	int3   
  4120a6:	cc                   	int3   
  4120a7:	cc                   	int3   
  4120a8:	cc                   	int3   
  4120a9:	cc                   	int3   
  4120aa:	cc                   	int3   
  4120ab:	cc                   	int3   
  4120ac:	cc                   	int3   
  4120ad:	cc                   	int3   
  4120ae:	cc                   	int3   
  4120af:	cc                   	int3   
  4120b0:	cc                   	int3   
  4120b1:	cc                   	int3   
  4120b2:	cc                   	int3   
  4120b3:	cc                   	int3   
  4120b4:	cc                   	int3   
  4120b5:	cc                   	int3   
  4120b6:	cc                   	int3   
  4120b7:	cc                   	int3   
  4120b8:	cc                   	int3   
  4120b9:	cc                   	int3   
  4120ba:	cc                   	int3   
  4120bb:	cc                   	int3   
  4120bc:	cc                   	int3   
  4120bd:	cc                   	int3   
  4120be:	cc                   	int3   
  4120bf:	cc                   	int3   
  4120c0:	cc                   	int3   
  4120c1:	cc                   	int3   
  4120c2:	cc                   	int3   
  4120c3:	cc                   	int3   
  4120c4:	cc                   	int3   
  4120c5:	cc                   	int3   
  4120c6:	cc                   	int3   
  4120c7:	cc                   	int3   
  4120c8:	cc                   	int3   
  4120c9:	cc                   	int3   
  4120ca:	cc                   	int3   
  4120cb:	cc                   	int3   
  4120cc:	cc                   	int3   
  4120cd:	cc                   	int3   
  4120ce:	cc                   	int3   
  4120cf:	cc                   	int3   
  4120d0:	cc                   	int3   
  4120d1:	cc                   	int3   
  4120d2:	cc                   	int3   
  4120d3:	cc                   	int3   
  4120d4:	cc                   	int3   
  4120d5:	cc                   	int3   
  4120d6:	cc                   	int3   
  4120d7:	cc                   	int3   
  4120d8:	cc                   	int3   
  4120d9:	cc                   	int3   
  4120da:	cc                   	int3   
  4120db:	cc                   	int3   
  4120dc:	cc                   	int3   
  4120dd:	cc                   	int3   
  4120de:	cc                   	int3   
  4120df:	cc                   	int3   
  4120e0:	cc                   	int3   
  4120e1:	cc                   	int3   
  4120e2:	cc                   	int3   
  4120e3:	cc                   	int3   
  4120e4:	cc                   	int3   
  4120e5:	cc                   	int3   
  4120e6:	cc                   	int3   
  4120e7:	cc                   	int3   
  4120e8:	cc                   	int3   
  4120e9:	cc                   	int3   
  4120ea:	cc                   	int3   
  4120eb:	cc                   	int3   
  4120ec:	cc                   	int3   
  4120ed:	cc                   	int3   
  4120ee:	cc                   	int3   
  4120ef:	cc                   	int3   
  4120f0:	cc                   	int3   
  4120f1:	cc                   	int3   
  4120f2:	cc                   	int3   
  4120f3:	cc                   	int3   
  4120f4:	cc                   	int3   
  4120f5:	cc                   	int3   
  4120f6:	cc                   	int3   
  4120f7:	cc                   	int3   
  4120f8:	cc                   	int3   
  4120f9:	cc                   	int3   
  4120fa:	cc                   	int3   
  4120fb:	cc                   	int3   
  4120fc:	cc                   	int3   
  4120fd:	cc                   	int3   
  4120fe:	cc                   	int3   
  4120ff:	cc                   	int3   
  412100:	cc                   	int3   
  412101:	cc                   	int3   
  412102:	cc                   	int3   
  412103:	cc                   	int3   
  412104:	cc                   	int3   
  412105:	cc                   	int3   
  412106:	cc                   	int3   
  412107:	cc                   	int3   
  412108:	cc                   	int3   
  412109:	cc                   	int3   
  41210a:	cc                   	int3   
  41210b:	cc                   	int3   
  41210c:	cc                   	int3   
  41210d:	cc                   	int3   
  41210e:	cc                   	int3   
  41210f:	cc                   	int3   
  412110:	cc                   	int3   
  412111:	cc                   	int3   
  412112:	cc                   	int3   
  412113:	cc                   	int3   
  412114:	cc                   	int3   
  412115:	cc                   	int3   
  412116:	cc                   	int3   
  412117:	cc                   	int3   
  412118:	cc                   	int3   
  412119:	cc                   	int3   
  41211a:	cc                   	int3   
  41211b:	cc                   	int3   
  41211c:	cc                   	int3   
  41211d:	cc                   	int3   
  41211e:	cc                   	int3   
  41211f:	cc                   	int3   
  412120:	cc                   	int3   
  412121:	cc                   	int3   
  412122:	cc                   	int3   
  412123:	cc                   	int3   
  412124:	cc                   	int3   
  412125:	cc                   	int3   
  412126:	cc                   	int3   
  412127:	cc                   	int3   
  412128:	cc                   	int3   
  412129:	cc                   	int3   
  41212a:	cc                   	int3   
  41212b:	cc                   	int3   
  41212c:	cc                   	int3   
  41212d:	cc                   	int3   
  41212e:	cc                   	int3   
  41212f:	cc                   	int3   
  412130:	cc                   	int3   
  412131:	cc                   	int3   
  412132:	cc                   	int3   
  412133:	cc                   	int3   
  412134:	cc                   	int3   
  412135:	cc                   	int3   
  412136:	cc                   	int3   
  412137:	cc                   	int3   
  412138:	cc                   	int3   
  412139:	cc                   	int3   
  41213a:	cc                   	int3   
  41213b:	cc                   	int3   
  41213c:	cc                   	int3   
  41213d:	cc                   	int3   
  41213e:	cc                   	int3   
  41213f:	cc                   	int3   
  412140:	cc                   	int3   
  412141:	cc                   	int3   
  412142:	cc                   	int3   
  412143:	cc                   	int3   
  412144:	cc                   	int3   
  412145:	cc                   	int3   
  412146:	cc                   	int3   
  412147:	cc                   	int3   
  412148:	cc                   	int3   
  412149:	cc                   	int3   
  41214a:	cc                   	int3   
  41214b:	cc                   	int3   
  41214c:	cc                   	int3   
  41214d:	cc                   	int3   
  41214e:	cc                   	int3   
  41214f:	cc                   	int3   
  412150:	cc                   	int3   
  412151:	cc                   	int3   
  412152:	cc                   	int3   
  412153:	cc                   	int3   
  412154:	cc                   	int3   
  412155:	cc                   	int3   
  412156:	cc                   	int3   
  412157:	cc                   	int3   
  412158:	cc                   	int3   
  412159:	cc                   	int3   
  41215a:	cc                   	int3   
  41215b:	cc                   	int3   
  41215c:	cc                   	int3   
  41215d:	cc                   	int3   
  41215e:	cc                   	int3   
  41215f:	cc                   	int3   
  412160:	cc                   	int3   
  412161:	cc                   	int3   
  412162:	cc                   	int3   
  412163:	cc                   	int3   
  412164:	cc                   	int3   
  412165:	cc                   	int3   
  412166:	cc                   	int3   
  412167:	cc                   	int3   
  412168:	cc                   	int3   
  412169:	cc                   	int3   
  41216a:	cc                   	int3   
  41216b:	cc                   	int3   
  41216c:	cc                   	int3   
  41216d:	cc                   	int3   
  41216e:	cc                   	int3   
  41216f:	cc                   	int3   
  412170:	cc                   	int3   
  412171:	cc                   	int3   
  412172:	cc                   	int3   
  412173:	cc                   	int3   
  412174:	cc                   	int3   
  412175:	cc                   	int3   
  412176:	cc                   	int3   
  412177:	cc                   	int3   
  412178:	cc                   	int3   
  412179:	cc                   	int3   
  41217a:	cc                   	int3   
  41217b:	cc                   	int3   
  41217c:	cc                   	int3   
  41217d:	cc                   	int3   
  41217e:	cc                   	int3   
  41217f:	cc                   	int3   
  412180:	cc                   	int3   
  412181:	cc                   	int3   
  412182:	cc                   	int3   
  412183:	cc                   	int3   
  412184:	cc                   	int3   
  412185:	cc                   	int3   
  412186:	cc                   	int3   
  412187:	cc                   	int3   
  412188:	cc                   	int3   
  412189:	cc                   	int3   
  41218a:	cc                   	int3   
  41218b:	cc                   	int3   
  41218c:	cc                   	int3   
  41218d:	cc                   	int3   
  41218e:	cc                   	int3   
  41218f:	cc                   	int3   
  412190:	cc                   	int3   
  412191:	cc                   	int3   
  412192:	cc                   	int3   
  412193:	cc                   	int3   
  412194:	cc                   	int3   
  412195:	cc                   	int3   
  412196:	cc                   	int3   
  412197:	cc                   	int3   
  412198:	cc                   	int3   
  412199:	cc                   	int3   
  41219a:	cc                   	int3   
  41219b:	cc                   	int3   
  41219c:	cc                   	int3   
  41219d:	cc                   	int3   
  41219e:	cc                   	int3   
  41219f:	cc                   	int3   
  4121a0:	cc                   	int3   
  4121a1:	cc                   	int3   
  4121a2:	cc                   	int3   
  4121a3:	cc                   	int3   
  4121a4:	cc                   	int3   
  4121a5:	cc                   	int3   
  4121a6:	cc                   	int3   
  4121a7:	cc                   	int3   
  4121a8:	cc                   	int3   
  4121a9:	cc                   	int3   
  4121aa:	cc                   	int3   
  4121ab:	cc                   	int3   
  4121ac:	cc                   	int3   
  4121ad:	cc                   	int3   
  4121ae:	cc                   	int3   
  4121af:	cc                   	int3   
  4121b0:	cc                   	int3   
  4121b1:	cc                   	int3   
  4121b2:	cc                   	int3   
  4121b3:	cc                   	int3   
  4121b4:	cc                   	int3   
  4121b5:	cc                   	int3   
  4121b6:	cc                   	int3   
  4121b7:	cc                   	int3   
  4121b8:	cc                   	int3   
  4121b9:	cc                   	int3   
  4121ba:	cc                   	int3   
  4121bb:	cc                   	int3   
  4121bc:	cc                   	int3   
  4121bd:	cc                   	int3   
  4121be:	cc                   	int3   
  4121bf:	cc                   	int3   
  4121c0:	cc                   	int3   
  4121c1:	cc                   	int3   
  4121c2:	cc                   	int3   
  4121c3:	cc                   	int3   
  4121c4:	cc                   	int3   
  4121c5:	cc                   	int3   
  4121c6:	cc                   	int3   
  4121c7:	cc                   	int3   
  4121c8:	cc                   	int3   
  4121c9:	cc                   	int3   
  4121ca:	cc                   	int3   
  4121cb:	cc                   	int3   
  4121cc:	cc                   	int3   
  4121cd:	cc                   	int3   
  4121ce:	cc                   	int3   
  4121cf:	cc                   	int3   
  4121d0:	cc                   	int3   
  4121d1:	cc                   	int3   
  4121d2:	cc                   	int3   
  4121d3:	cc                   	int3   
  4121d4:	cc                   	int3   
  4121d5:	cc                   	int3   
  4121d6:	cc                   	int3   
  4121d7:	cc                   	int3   
  4121d8:	cc                   	int3   
  4121d9:	cc                   	int3   
  4121da:	cc                   	int3   
  4121db:	cc                   	int3   
  4121dc:	cc                   	int3   
  4121dd:	cc                   	int3   
  4121de:	cc                   	int3   
  4121df:	cc                   	int3   
  4121e0:	cc                   	int3   
  4121e1:	cc                   	int3   
  4121e2:	cc                   	int3   
  4121e3:	cc                   	int3   
  4121e4:	cc                   	int3   
  4121e5:	cc                   	int3   
  4121e6:	cc                   	int3   
  4121e7:	cc                   	int3   
  4121e8:	cc                   	int3   
  4121e9:	cc                   	int3   
  4121ea:	cc                   	int3   
  4121eb:	cc                   	int3   
  4121ec:	cc                   	int3   
  4121ed:	cc                   	int3   
  4121ee:	cc                   	int3   
  4121ef:	cc                   	int3   
  4121f0:	cc                   	int3   
  4121f1:	cc                   	int3   
  4121f2:	cc                   	int3   
  4121f3:	cc                   	int3   
  4121f4:	cc                   	int3   
  4121f5:	cc                   	int3   
  4121f6:	cc                   	int3   
  4121f7:	cc                   	int3   
  4121f8:	cc                   	int3   
  4121f9:	cc                   	int3   
  4121fa:	cc                   	int3   
  4121fb:	cc                   	int3   
  4121fc:	cc                   	int3   
  4121fd:	cc                   	int3   
  4121fe:	cc                   	int3   
  4121ff:	cc                   	int3   
  412200:	cc                   	int3   
  412201:	cc                   	int3   
  412202:	cc                   	int3   
  412203:	cc                   	int3   
  412204:	cc                   	int3   
  412205:	cc                   	int3   
  412206:	cc                   	int3   
  412207:	cc                   	int3   
  412208:	cc                   	int3   
  412209:	cc                   	int3   
  41220a:	cc                   	int3   
  41220b:	cc                   	int3   
  41220c:	cc                   	int3   
  41220d:	cc                   	int3   
  41220e:	cc                   	int3   
  41220f:	cc                   	int3   
  412210:	cc                   	int3   
  412211:	cc                   	int3   
  412212:	cc                   	int3   
  412213:	cc                   	int3   
  412214:	cc                   	int3   
  412215:	cc                   	int3   
  412216:	cc                   	int3   
  412217:	cc                   	int3   
  412218:	cc                   	int3   
  412219:	cc                   	int3   
  41221a:	cc                   	int3   
  41221b:	cc                   	int3   
  41221c:	cc                   	int3   
  41221d:	cc                   	int3   
  41221e:	cc                   	int3   
  41221f:	cc                   	int3   
  412220:	cc                   	int3   
  412221:	cc                   	int3   
  412222:	cc                   	int3   
  412223:	cc                   	int3   
  412224:	cc                   	int3   
  412225:	cc                   	int3   
  412226:	cc                   	int3   
  412227:	cc                   	int3   
  412228:	cc                   	int3   
  412229:	cc                   	int3   
  41222a:	cc                   	int3   
  41222b:	cc                   	int3   
  41222c:	cc                   	int3   
  41222d:	cc                   	int3   
  41222e:	cc                   	int3   
  41222f:	cc                   	int3   
  412230:	cc                   	int3   
  412231:	cc                   	int3   
  412232:	cc                   	int3   
  412233:	cc                   	int3   
  412234:	cc                   	int3   
  412235:	cc                   	int3   
  412236:	cc                   	int3   
  412237:	cc                   	int3   
  412238:	cc                   	int3   
  412239:	cc                   	int3   
  41223a:	cc                   	int3   
  41223b:	cc                   	int3   
  41223c:	cc                   	int3   
  41223d:	cc                   	int3   
  41223e:	cc                   	int3   
  41223f:	cc                   	int3   
  412240:	cc                   	int3   
  412241:	cc                   	int3   
  412242:	cc                   	int3   
  412243:	cc                   	int3   
  412244:	cc                   	int3   
  412245:	cc                   	int3   
  412246:	cc                   	int3   
  412247:	cc                   	int3   
  412248:	cc                   	int3   
  412249:	cc                   	int3   
  41224a:	cc                   	int3   
  41224b:	cc                   	int3   
  41224c:	cc                   	int3   
  41224d:	cc                   	int3   
  41224e:	cc                   	int3   
  41224f:	cc                   	int3   
  412250:	cc                   	int3   
  412251:	cc                   	int3   
  412252:	cc                   	int3   
  412253:	cc                   	int3   
  412254:	cc                   	int3   
  412255:	cc                   	int3   
  412256:	cc                   	int3   
  412257:	cc                   	int3   
  412258:	cc                   	int3   
  412259:	cc                   	int3   
  41225a:	cc                   	int3   
  41225b:	cc                   	int3   
  41225c:	cc                   	int3   
  41225d:	cc                   	int3   
  41225e:	cc                   	int3   
  41225f:	cc                   	int3   
  412260:	cc                   	int3   
  412261:	cc                   	int3   
  412262:	cc                   	int3   
  412263:	cc                   	int3   
  412264:	cc                   	int3   
  412265:	cc                   	int3   
  412266:	cc                   	int3   
  412267:	cc                   	int3   
  412268:	cc                   	int3   
  412269:	cc                   	int3   
  41226a:	cc                   	int3   
  41226b:	cc                   	int3   
  41226c:	cc                   	int3   
  41226d:	cc                   	int3   
  41226e:	cc                   	int3   
  41226f:	cc                   	int3   
  412270:	cc                   	int3   
  412271:	cc                   	int3   
  412272:	cc                   	int3   
  412273:	cc                   	int3   
  412274:	cc                   	int3   
  412275:	cc                   	int3   
  412276:	cc                   	int3   
  412277:	cc                   	int3   
  412278:	cc                   	int3   
  412279:	cc                   	int3   
  41227a:	cc                   	int3   
  41227b:	cc                   	int3   
  41227c:	cc                   	int3   
  41227d:	cc                   	int3   
  41227e:	cc                   	int3   
  41227f:	cc                   	int3   
  412280:	cc                   	int3   
  412281:	cc                   	int3   
  412282:	cc                   	int3   
  412283:	cc                   	int3   
  412284:	cc                   	int3   
  412285:	cc                   	int3   
  412286:	cc                   	int3   
  412287:	cc                   	int3   
  412288:	cc                   	int3   
  412289:	cc                   	int3   
  41228a:	cc                   	int3   
  41228b:	cc                   	int3   
  41228c:	cc                   	int3   
  41228d:	cc                   	int3   
  41228e:	cc                   	int3   
  41228f:	cc                   	int3   
  412290:	cc                   	int3   
  412291:	cc                   	int3   
  412292:	cc                   	int3   
  412293:	cc                   	int3   
  412294:	cc                   	int3   
  412295:	cc                   	int3   
  412296:	cc                   	int3   
  412297:	cc                   	int3   
  412298:	cc                   	int3   
  412299:	cc                   	int3   
  41229a:	cc                   	int3   
  41229b:	cc                   	int3   
  41229c:	cc                   	int3   
  41229d:	cc                   	int3   
  41229e:	cc                   	int3   
  41229f:	cc                   	int3   
  4122a0:	cc                   	int3   
  4122a1:	cc                   	int3   
  4122a2:	cc                   	int3   
  4122a3:	cc                   	int3   
  4122a4:	cc                   	int3   
  4122a5:	cc                   	int3   
  4122a6:	cc                   	int3   
  4122a7:	cc                   	int3   
  4122a8:	cc                   	int3   
  4122a9:	cc                   	int3   
  4122aa:	cc                   	int3   
  4122ab:	cc                   	int3   
  4122ac:	cc                   	int3   
  4122ad:	cc                   	int3   
  4122ae:	cc                   	int3   
  4122af:	cc                   	int3   
  4122b0:	55                   	push   ebp
  4122b1:	8b ec                	mov    ebp,esp
  4122b3:	81 ec c0 00 00 00    	sub    esp,0xc0
  4122b9:	53                   	push   ebx
  4122ba:	56                   	push   esi
  4122bb:	57                   	push   edi
  4122bc:	8d bd 40 ff ff ff    	lea    edi,[ebp-0xc0]
  4122c2:	b9 30 00 00 00       	mov    ecx,0x30
  4122c7:	b8 cc cc cc cc       	mov    eax,0xcccccccc
  4122cc:	f3 ab                	rep stos DWORD PTR es:[edi],eax
  4122ce:	b9 70 db 42 00       	mov    ecx,0x42db70
  4122d3:	e8 fd f4 ff ff       	call   0x4117d5
  4122d8:	68 d0 3f 42 00       	push   0x423fd0
  4122dd:	e8 3f ef ff ff       	call   0x411221
  4122e2:	83 c4 04             	add    esp,0x4
  4122e5:	5f                   	pop    edi
  4122e6:	5e                   	pop    esi
  4122e7:	5b                   	pop    ebx
  4122e8:	81 c4 c0 00 00 00    	add    esp,0xc0
  4122ee:	3b ec                	cmp    ebp,esp
  4122f0:	e8 4b f3 ff ff       	call   0x411640
  4122f5:	8b e5                	mov    esp,ebp
  4122f7:	5d                   	pop    ebp
  4122f8:	c3                   	ret    
  4122f9:	cc                   	int3   
  4122fa:	cc                   	int3   
  4122fb:	cc                   	int3   
  4122fc:	cc                   	int3   
  4122fd:	cc                   	int3   
  4122fe:	cc                   	int3   
  4122ff:	cc                   	int3   
  412300:	cc                   	int3   
  412301:	cc                   	int3   
  412302:	cc                   	int3   
  412303:	cc                   	int3   
  412304:	cc                   	int3   
  412305:	cc                   	int3   
  412306:	cc                   	int3   
  412307:	cc                   	int3   
  412308:	cc                   	int3   
  412309:	cc                   	int3   
  41230a:	cc                   	int3   
  41230b:	cc                   	int3   
  41230c:	cc                   	int3   
  41230d:	cc                   	int3   
  41230e:	cc                   	int3   
  41230f:	cc                   	int3   
  412310:	55                   	push   ebp
  412311:	8b ec                	mov    ebp,esp
  412313:	81 ec c0 00 00 00    	sub    esp,0xc0
  412319:	53                   	push   ebx
  41231a:	56                   	push   esi
  41231b:	57                   	push   edi
  41231c:	8d bd 40 ff ff ff    	lea    edi,[ebp-0xc0]
  412322:	b9 30 00 00 00       	mov    ecx,0x30
  412327:	b8 cc cc cc cc       	mov    eax,0xcccccccc
  41232c:	f3 ab                	rep stos DWORD PTR es:[edi],eax
  41232e:	b9 74 db 42 00       	mov    ecx,0x42db74
  412333:	e8 da ee ff ff       	call   0x411212
  412338:	68 20 40 42 00       	push   0x424020
  41233d:	e8 df ee ff ff       	call   0x411221
  412342:	83 c4 04             	add    esp,0x4
  412345:	5f                   	pop    edi
  412346:	5e                   	pop    esi
  412347:	5b                   	pop    ebx
  412348:	81 c4 c0 00 00 00    	add    esp,0xc0
  41234e:	3b ec                	cmp    ebp,esp
  412350:	e8 eb f2 ff ff       	call   0x411640
  412355:	8b e5                	mov    esp,ebp
  412357:	5d                   	pop    ebp
  412358:	c3                   	ret    
  412359:	cc                   	int3   
  41235a:	cc                   	int3   
  41235b:	cc                   	int3   
  41235c:	cc                   	int3   
  41235d:	cc                   	int3   
  41235e:	cc                   	int3   
  41235f:	cc                   	int3   
  412360:	cc                   	int3   
  412361:	cc                   	int3   
  412362:	cc                   	int3   
  412363:	cc                   	int3   
  412364:	cc                   	int3   
  412365:	cc                   	int3   
  412366:	cc                   	int3   
  412367:	cc                   	int3   
  412368:	cc                   	int3   
  412369:	cc                   	int3   
  41236a:	cc                   	int3   
  41236b:	cc                   	int3   
  41236c:	cc                   	int3   
  41236d:	cc                   	int3   
  41236e:	cc                   	int3   
  41236f:	cc                   	int3   
  412370:	55                   	push   ebp
  412371:	8b ec                	mov    ebp,esp
  412373:	81 ec c0 00 00 00    	sub    esp,0xc0
  412379:	53                   	push   ebx
  41237a:	56                   	push   esi
  41237b:	57                   	push   edi
  41237c:	8d bd 40 ff ff ff    	lea    edi,[ebp-0xc0]
  412382:	b9 30 00 00 00       	mov    ecx,0x30
  412387:	b8 cc cc cc cc       	mov    eax,0xcccccccc
  41238c:	f3 ab                	rep stos DWORD PTR es:[edi],eax
  41238e:	b9 78 db 42 00       	mov    ecx,0x42db78
  412393:	e8 67 ed ff ff       	call   0x4110ff
  412398:	68 70 40 42 00       	push   0x424070
  41239d:	e8 7f ee ff ff       	call   0x411221
  4123a2:	83 c4 04             	add    esp,0x4
  4123a5:	5f                   	pop    edi
  4123a6:	5e                   	pop    esi
  4123a7:	5b                   	pop    ebx
  4123a8:	81 c4 c0 00 00 00    	add    esp,0xc0
  4123ae:	3b ec                	cmp    ebp,esp
  4123b0:	e8 8b f2 ff ff       	call   0x411640
  4123b5:	8b e5                	mov    esp,ebp
  4123b7:	5d                   	pop    ebp
  4123b8:	c3                   	ret    
  4123b9:	cc                   	int3   
  4123ba:	cc                   	int3   
  4123bb:	cc                   	int3   
  4123bc:	cc                   	int3   
  4123bd:	cc                   	int3   
  4123be:	cc                   	int3   
  4123bf:	cc                   	int3   
  4123c0:	cc                   	int3   
  4123c1:	cc                   	int3   
  4123c2:	cc                   	int3   
  4123c3:	cc                   	int3   
  4123c4:	cc                   	int3   
  4123c5:	cc                   	int3   
  4123c6:	cc                   	int3   
  4123c7:	cc                   	int3   
  4123c8:	cc                   	int3   
  4123c9:	cc                   	int3   
  4123ca:	cc                   	int3   
  4123cb:	cc                   	int3   
  4123cc:	cc                   	int3   
  4123cd:	cc                   	int3   
  4123ce:	cc                   	int3   
  4123cf:	cc                   	int3   
  4123d0:	55                   	push   ebp
  4123d1:	8b ec                	mov    ebp,esp
  4123d3:	81 ec c0 00 00 00    	sub    esp,0xc0
  4123d9:	53                   	push   ebx
  4123da:	56                   	push   esi
  4123db:	57                   	push   edi
  4123dc:	8d bd 40 ff ff ff    	lea    edi,[ebp-0xc0]
  4123e2:	b9 30 00 00 00       	mov    ecx,0x30
  4123e7:	b8 cc cc cc cc       	mov    eax,0xcccccccc
  4123ec:	f3 ab                	rep stos DWORD PTR es:[edi],eax
  4123ee:	8b f4                	mov    esi,esp
  4123f0:	6a 00                	push   0x0
  4123f2:	b9 7c db 42 00       	mov    ecx,0x42db7c
  4123f7:	ff 15 2c f1 42 00    	call   DWORD PTR ds:0x42f12c
  4123fd:	3b f4                	cmp    esi,esp
  4123ff:	e8 3c f2 ff ff       	call   0x411640
  412404:	5f                   	pop    edi
  412405:	5e                   	pop    esi
  412406:	5b                   	pop    ebx
  412407:	81 c4 c0 00 00 00    	add    esp,0xc0
  41240d:	3b ec                	cmp    ebp,esp
  41240f:	e8 2c f2 ff ff       	call   0x411640
  412414:	8b e5                	mov    esp,ebp
  412416:	5d                   	pop    ebp
  412417:	c3                   	ret    
  412418:	cc                   	int3   
  412419:	cc                   	int3   
  41241a:	cc                   	int3   
  41241b:	cc                   	int3   
  41241c:	cc                   	int3   
  41241d:	cc                   	int3   
  41241e:	cc                   	int3   
  41241f:	cc                   	int3   
  412420:	cc                   	int3   
  412421:	cc                   	int3   
  412422:	cc                   	int3   
  412423:	cc                   	int3   
  412424:	cc                   	int3   
  412425:	cc                   	int3   
  412426:	cc                   	int3   
  412427:	cc                   	int3   
  412428:	cc                   	int3   
  412429:	cc                   	int3   
  41242a:	cc                   	int3   
  41242b:	cc                   	int3   
  41242c:	cc                   	int3   
  41242d:	cc                   	int3   
  41242e:	cc                   	int3   
  41242f:	cc                   	int3   
  412430:	55                   	push   ebp
  412431:	8b ec                	mov    ebp,esp
  412433:	81 ec c0 00 00 00    	sub    esp,0xc0
  412439:	53                   	push   ebx
  41243a:	56                   	push   esi
  41243b:	57                   	push   edi
  41243c:	8d bd 40 ff ff ff    	lea    edi,[ebp-0xc0]
  412442:	b9 30 00 00 00       	mov    ecx,0x30
  412447:	b8 cc cc cc cc       	mov    eax,0xcccccccc
  41244c:	f3 ab                	rep stos DWORD PTR es:[edi],eax
  41244e:	8b f4                	mov    esi,esp
  412450:	6a 00                	push   0x0
  412452:	b9 80 db 42 00       	mov    ecx,0x42db80
  412457:	ff 15 2c f1 42 00    	call   DWORD PTR ds:0x42f12c
  41245d:	3b f4                	cmp    esi,esp
  41245f:	e8 dc f1 ff ff       	call   0x411640
  412464:	5f                   	pop    edi
  412465:	5e                   	pop    esi
  412466:	5b                   	pop    ebx
  412467:	81 c4 c0 00 00 00    	add    esp,0xc0
  41246d:	3b ec                	cmp    ebp,esp
  41246f:	e8 cc f1 ff ff       	call   0x411640
  412474:	8b e5                	mov    esp,ebp
  412476:	5d                   	pop    ebp
  412477:	c3                   	ret    
  412478:	cc                   	int3   
  412479:	cc                   	int3   
  41247a:	cc                   	int3   
  41247b:	cc                   	int3   
  41247c:	cc                   	int3   
  41247d:	cc                   	int3   
  41247e:	cc                   	int3   
  41247f:	cc                   	int3   
  412480:	cc                   	int3   
  412481:	cc                   	int3   
  412482:	cc                   	int3   
  412483:	cc                   	int3   
  412484:	cc                   	int3   
  412485:	cc                   	int3   
  412486:	cc                   	int3   
  412487:	cc                   	int3   
  412488:	cc                   	int3   
  412489:	cc                   	int3   
  41248a:	cc                   	int3   
  41248b:	cc                   	int3   
  41248c:	cc                   	int3   
  41248d:	cc                   	int3   
  41248e:	cc                   	int3   
  41248f:	cc                   	int3   
  412490:	55                   	push   ebp
  412491:	8b ec                	mov    ebp,esp
  412493:	81 ec c0 00 00 00    	sub    esp,0xc0
  412499:	53                   	push   ebx
  41249a:	56                   	push   esi
  41249b:	57                   	push   edi
  41249c:	8d bd 40 ff ff ff    	lea    edi,[ebp-0xc0]
  4124a2:	b9 30 00 00 00       	mov    ecx,0x30
  4124a7:	b8 cc cc cc cc       	mov    eax,0xcccccccc
  4124ac:	f3 ab                	rep stos DWORD PTR es:[edi],eax
  4124ae:	b9 08 db 42 00       	mov    ecx,0x42db08
  4124b3:	e8 ad ef ff ff       	call   0x411465
  4124b8:	68 c0 40 42 00       	push   0x4240c0
  4124bd:	e8 5f ed ff ff       	call   0x411221
  4124c2:	83 c4 04             	add    esp,0x4
  4124c5:	5f                   	pop    edi
  4124c6:	5e                   	pop    esi
  4124c7:	5b                   	pop    ebx
  4124c8:	81 c4 c0 00 00 00    	add    esp,0xc0
  4124ce:	3b ec                	cmp    ebp,esp
  4124d0:	e8 6b f1 ff ff       	call   0x411640
  4124d5:	8b e5                	mov    esp,ebp
  4124d7:	5d                   	pop    ebp
  4124d8:	c3                   	ret    
  4124d9:	cc                   	int3   
  4124da:	cc                   	int3   
  4124db:	cc                   	int3   
  4124dc:	cc                   	int3   
  4124dd:	cc                   	int3   
  4124de:	cc                   	int3   
  4124df:	cc                   	int3   
  4124e0:	cc                   	int3   
  4124e1:	cc                   	int3   
  4124e2:	cc                   	int3   
  4124e3:	cc                   	int3   
  4124e4:	cc                   	int3   
  4124e5:	cc                   	int3   
  4124e6:	cc                   	int3   
  4124e7:	cc                   	int3   
  4124e8:	cc                   	int3   
  4124e9:	cc                   	int3   
  4124ea:	cc                   	int3   
  4124eb:	cc                   	int3   
  4124ec:	cc                   	int3   
  4124ed:	cc                   	int3   
  4124ee:	cc                   	int3   
  4124ef:	cc                   	int3   
  4124f0:	55                   	push   ebp
  4124f1:	8b ec                	mov    ebp,esp
  4124f3:	81 ec c0 00 00 00    	sub    esp,0xc0
  4124f9:	53                   	push   ebx
  4124fa:	56                   	push   esi
  4124fb:	57                   	push   edi
  4124fc:	8d bd 40 ff ff ff    	lea    edi,[ebp-0xc0]
  412502:	b9 30 00 00 00       	mov    ecx,0x30
  412507:	b8 cc cc cc cc       	mov    eax,0xcccccccc
  41250c:	f3 ab                	rep stos DWORD PTR es:[edi],eax
  41250e:	b9 38 db 42 00       	mov    ecx,0x42db38
  412513:	e8 1a f0 ff ff       	call   0x411532
  412518:	68 10 41 42 00       	push   0x424110
  41251d:	e8 ff ec ff ff       	call   0x411221
  412522:	83 c4 04             	add    esp,0x4
  412525:	5f                   	pop    edi
  412526:	5e                   	pop    esi
  412527:	5b                   	pop    ebx
  412528:	81 c4 c0 00 00 00    	add    esp,0xc0
  41252e:	3b ec                	cmp    ebp,esp
  412530:	e8 0b f1 ff ff       	call   0x411640
  412535:	8b e5                	mov    esp,ebp
  412537:	5d                   	pop    ebp
  412538:	c3                   	ret    
  412539:	cc                   	int3   
  41253a:	cc                   	int3   
  41253b:	cc                   	int3   
  41253c:	cc                   	int3   
  41253d:	cc                   	int3   
  41253e:	cc                   	int3   
  41253f:	cc                   	int3   
  412540:	cc                   	int3   
  412541:	cc                   	int3   
  412542:	cc                   	int3   
  412543:	cc                   	int3   
  412544:	cc                   	int3   
  412545:	cc                   	int3   
  412546:	cc                   	int3   
  412547:	cc                   	int3   
  412548:	cc                   	int3   
  412549:	cc                   	int3   
  41254a:	cc                   	int3   
  41254b:	cc                   	int3   
  41254c:	cc                   	int3   
  41254d:	cc                   	int3   
  41254e:	cc                   	int3   
  41254f:	cc                   	int3   
  412550:	55                   	push   ebp
  412551:	8b ec                	mov    ebp,esp
  412553:	81 ec cc 00 00 00    	sub    esp,0xcc
  412559:	53                   	push   ebx
  41255a:	56                   	push   esi
  41255b:	57                   	push   edi
  41255c:	8d bd 34 ff ff ff    	lea    edi,[ebp-0xcc]
  412562:	b9 33 00 00 00       	mov    ecx,0x33
  412567:	b8 cc cc cc cc       	mov    eax,0xcccccccc
  41256c:	f3 ab                	rep stos DWORD PTR es:[edi],eax
  41256e:	33 c0                	xor    eax,eax
  412570:	88 85 3b ff ff ff    	mov    BYTE PTR [ebp-0xc5],al
  412576:	5f                   	pop    edi
  412577:	5e                   	pop    esi
  412578:	5b                   	pop    ebx
  412579:	8b e5                	mov    esp,ebp
  41257b:	5d                   	pop    ebp
  41257c:	c3                   	ret    
  41257d:	cc                   	int3   
  41257e:	cc                   	int3   
  41257f:	cc                   	int3   
  412580:	cc                   	int3   
  412581:	cc                   	int3   
  412582:	cc                   	int3   
  412583:	cc                   	int3   
  412584:	cc                   	int3   
  412585:	cc                   	int3   
  412586:	cc                   	int3   
  412587:	cc                   	int3   
  412588:	cc                   	int3   
  412589:	cc                   	int3   
  41258a:	cc                   	int3   
  41258b:	cc                   	int3   
  41258c:	cc                   	int3   
  41258d:	cc                   	int3   
  41258e:	cc                   	int3   
  41258f:	cc                   	int3   
  412590:	55                   	push   ebp
  412591:	8b ec                	mov    ebp,esp
  412593:	81 ec c0 00 00 00    	sub    esp,0xc0
  412599:	53                   	push   ebx
  41259a:	56                   	push   esi
  41259b:	57                   	push   edi
  41259c:	8d bd 40 ff ff ff    	lea    edi,[ebp-0xc0]
  4125a2:	b9 30 00 00 00       	mov    ecx,0x30
  4125a7:	b8 cc cc cc cc       	mov    eax,0xcccccccc
  4125ac:	f3 ab                	rep stos DWORD PTR es:[edi],eax
  4125ae:	68 d0 70 42 00       	push   0x4270d0
  4125b3:	b9 dc da 42 00       	mov    ecx,0x42dadc
  4125b8:	e8 02 ef ff ff       	call   0x4114bf
  4125bd:	5f                   	pop    edi
  4125be:	5e                   	pop    esi
  4125bf:	5b                   	pop    ebx
  4125c0:	81 c4 c0 00 00 00    	add    esp,0xc0
  4125c6:	3b ec                	cmp    ebp,esp
  4125c8:	e8 73 f0 ff ff       	call   0x411640
  4125cd:	8b e5                	mov    esp,ebp
  4125cf:	5d                   	pop    ebp
  4125d0:	c3                   	ret    
  4125d1:	cc                   	int3   
  4125d2:	cc                   	int3   
  4125d3:	cc                   	int3   
  4125d4:	cc                   	int3   
  4125d5:	cc                   	int3   
  4125d6:	cc                   	int3   
  4125d7:	cc                   	int3   
  4125d8:	cc                   	int3   
  4125d9:	cc                   	int3   
  4125da:	cc                   	int3   
  4125db:	cc                   	int3   
  4125dc:	cc                   	int3   
  4125dd:	cc                   	int3   
  4125de:	cc                   	int3   
  4125df:	cc                   	int3   
  4125e0:	cc                   	int3   
  4125e1:	cc                   	int3   
  4125e2:	cc                   	int3   
  4125e3:	cc                   	int3   
  4125e4:	cc                   	int3   
  4125e5:	cc                   	int3   
  4125e6:	cc                   	int3   
  4125e7:	cc                   	int3   
  4125e8:	cc                   	int3   
  4125e9:	cc                   	int3   
  4125ea:	cc                   	int3   
  4125eb:	cc                   	int3   
  4125ec:	cc                   	int3   
  4125ed:	cc                   	int3   
  4125ee:	cc                   	int3   
  4125ef:	cc                   	int3   
  4125f0:	55                   	push   ebp
  4125f1:	8b ec                	mov    ebp,esp
  4125f3:	81 ec c0 00 00 00    	sub    esp,0xc0
  4125f9:	53                   	push   ebx
  4125fa:	56                   	push   esi
  4125fb:	57                   	push   edi
  4125fc:	8d bd 40 ff ff ff    	lea    edi,[ebp-0xc0]
  412602:	b9 30 00 00 00       	mov    ecx,0x30
  412607:	b8 cc cc cc cc       	mov    eax,0xcccccccc
  41260c:	f3 ab                	rep stos DWORD PTR es:[edi],eax
  41260e:	68 24 6f 42 00       	push   0x426f24
  412613:	b9 b0 da 42 00       	mov    ecx,0x42dab0
  412618:	e8 65 ea ff ff       	call   0x411082
  41261d:	5f                   	pop    edi
  41261e:	5e                   	pop    esi
  41261f:	5b                   	pop    ebx
  412620:	81 c4 c0 00 00 00    	add    esp,0xc0
  412626:	3b ec                	cmp    ebp,esp
  412628:	e8 13 f0 ff ff       	call   0x411640
  41262d:	8b e5                	mov    esp,ebp
  41262f:	5d                   	pop    ebp
  412630:	c3                   	ret    
  412631:	cc                   	int3   
  412632:	cc                   	int3   
  412633:	cc                   	int3   
  412634:	cc                   	int3   
  412635:	cc                   	int3   
  412636:	cc                   	int3   
  412637:	cc                   	int3   
  412638:	cc                   	int3   
  412639:	cc                   	int3   
  41263a:	cc                   	int3   
  41263b:	cc                   	int3   
  41263c:	cc                   	int3   
  41263d:	cc                   	int3   
  41263e:	cc                   	int3   
  41263f:	cc                   	int3   
  412640:	cc                   	int3   
  412641:	cc                   	int3   
  412642:	cc                   	int3   
  412643:	cc                   	int3   
  412644:	cc                   	int3   
  412645:	cc                   	int3   
  412646:	cc                   	int3   
  412647:	cc                   	int3   
  412648:	cc                   	int3   
  412649:	cc                   	int3   
  41264a:	cc                   	int3   
  41264b:	cc                   	int3   
  41264c:	cc                   	int3   
  41264d:	cc                   	int3   
  41264e:	cc                   	int3   
  41264f:	cc                   	int3   
  412650:	55                   	push   ebp
  412651:	8b ec                	mov    ebp,esp
  412653:	81 ec c0 00 00 00    	sub    esp,0xc0
  412659:	53                   	push   ebx
  41265a:	56                   	push   esi
  41265b:	57                   	push   edi
  41265c:	8d bd 40 ff ff ff    	lea    edi,[ebp-0xc0]
  412662:	b9 30 00 00 00       	mov    ecx,0x30
  412667:	b8 cc cc cc cc       	mov    eax,0xcccccccc
  41266c:	f3 ab                	rep stos DWORD PTR es:[edi],eax
  41266e:	68 4c 71 42 00       	push   0x42714c
  412673:	b9 e8 da 42 00       	mov    ecx,0x42dae8
  412678:	e8 26 f1 ff ff       	call   0x4117a3
  41267d:	5f                   	pop    edi
  41267e:	5e                   	pop    esi
  41267f:	5b                   	pop    ebx
  412680:	81 c4 c0 00 00 00    	add    esp,0xc0
  412686:	3b ec                	cmp    ebp,esp
  412688:	e8 b3 ef ff ff       	call   0x411640
  41268d:	8b e5                	mov    esp,ebp
  41268f:	5d                   	pop    ebp
  412690:	c3                   	ret    
  412691:	cc                   	int3   
  412692:	cc                   	int3   
  412693:	cc                   	int3   
  412694:	cc                   	int3   
  412695:	cc                   	int3   
  412696:	cc                   	int3   
  412697:	cc                   	int3   
  412698:	cc                   	int3   
  412699:	cc                   	int3   
  41269a:	cc                   	int3   
  41269b:	cc                   	int3   
  41269c:	cc                   	int3   
  41269d:	cc                   	int3   
  41269e:	cc                   	int3   
  41269f:	cc                   	int3   
  4126a0:	cc                   	int3   
  4126a1:	cc                   	int3   
  4126a2:	cc                   	int3   
  4126a3:	cc                   	int3   
  4126a4:	cc                   	int3   
  4126a5:	cc                   	int3   
  4126a6:	cc                   	int3   
  4126a7:	cc                   	int3   
  4126a8:	cc                   	int3   
  4126a9:	cc                   	int3   
  4126aa:	cc                   	int3   
  4126ab:	cc                   	int3   
  4126ac:	cc                   	int3   
  4126ad:	cc                   	int3   
  4126ae:	cc                   	int3   
  4126af:	cc                   	int3   
  4126b0:	55                   	push   ebp
  4126b1:	8b ec                	mov    ebp,esp
  4126b3:	81 ec c0 00 00 00    	sub    esp,0xc0
  4126b9:	53                   	push   ebx
  4126ba:	56                   	push   esi
  4126bb:	57                   	push   edi
  4126bc:	8d bd 40 ff ff ff    	lea    edi,[ebp-0xc0]
  4126c2:	b9 30 00 00 00       	mov    ecx,0x30
  4126c7:	b8 cc cc cc cc       	mov    eax,0xcccccccc
  4126cc:	f3 ab                	rep stos DWORD PTR es:[edi],eax
  4126ce:	68 dc 6f 42 00       	push   0x426fdc
  4126d3:	b9 c4 da 42 00       	mov    ecx,0x42dac4
  4126d8:	e8 3d f2 ff ff       	call   0x41191a
  4126dd:	5f                   	pop    edi
  4126de:	5e                   	pop    esi
  4126df:	5b                   	pop    ebx
  4126e0:	81 c4 c0 00 00 00    	add    esp,0xc0
  4126e6:	3b ec                	cmp    ebp,esp
  4126e8:	e8 53 ef ff ff       	call   0x411640
  4126ed:	8b e5                	mov    esp,ebp
  4126ef:	5d                   	pop    ebp
  4126f0:	c3                   	ret    
  4126f1:	cc                   	int3   
  4126f2:	cc                   	int3   
  4126f3:	cc                   	int3   
  4126f4:	cc                   	int3   
  4126f5:	cc                   	int3   
  4126f6:	cc                   	int3   
  4126f7:	cc                   	int3   
  4126f8:	cc                   	int3   
  4126f9:	cc                   	int3   
  4126fa:	cc                   	int3   
  4126fb:	cc                   	int3   
  4126fc:	cc                   	int3   
  4126fd:	cc                   	int3   
  4126fe:	cc                   	int3   
  4126ff:	cc                   	int3   
  412700:	cc                   	int3   
  412701:	cc                   	int3   
  412702:	cc                   	int3   
  412703:	cc                   	int3   
  412704:	cc                   	int3   
  412705:	cc                   	int3   
  412706:	cc                   	int3   
  412707:	cc                   	int3   
  412708:	cc                   	int3   
  412709:	cc                   	int3   
  41270a:	cc                   	int3   
  41270b:	cc                   	int3   
  41270c:	cc                   	int3   
  41270d:	cc                   	int3   
  41270e:	cc                   	int3   
  41270f:	cc                   	int3   
  412710:	55                   	push   ebp
  412711:	8b ec                	mov    ebp,esp
  412713:	81 ec c0 00 00 00    	sub    esp,0xc0
  412719:	53                   	push   ebx
  41271a:	56                   	push   esi
  41271b:	57                   	push   edi
  41271c:	8d bd 40 ff ff ff    	lea    edi,[ebp-0xc0]
  412722:	b9 30 00 00 00       	mov    ecx,0x30
  412727:	b8 cc cc cc cc       	mov    eax,0xcccccccc
  41272c:	f3 ab                	rep stos DWORD PTR es:[edi],eax
  41272e:	68 2c 70 42 00       	push   0x42702c
  412733:	b9 cc da 42 00       	mov    ecx,0x42dacc
  412738:	e8 d7 e8 ff ff       	call   0x411014
  41273d:	5f                   	pop    edi
  41273e:	5e                   	pop    esi
  41273f:	5b                   	pop    ebx
  412740:	81 c4 c0 00 00 00    	add    esp,0xc0
  412746:	3b ec                	cmp    ebp,esp
  412748:	e8 f3 ee ff ff       	call   0x411640
  41274d:	8b e5                	mov    esp,ebp
  41274f:	5d                   	pop    ebp
  412750:	c3                   	ret    
  412751:	cc                   	int3   
  412752:	cc                   	int3   
  412753:	cc                   	int3   
  412754:	cc                   	int3   
  412755:	cc                   	int3   
  412756:	cc                   	int3   
  412757:	cc                   	int3   
  412758:	cc                   	int3   
  412759:	cc                   	int3   
  41275a:	cc                   	int3   
  41275b:	cc                   	int3   
  41275c:	cc                   	int3   
  41275d:	cc                   	int3   
  41275e:	cc                   	int3   
  41275f:	cc                   	int3   
  412760:	cc                   	int3   
  412761:	cc                   	int3   
  412762:	cc                   	int3   
  412763:	cc                   	int3   
  412764:	cc                   	int3   
  412765:	cc                   	int3   
  412766:	cc                   	int3   
  412767:	cc                   	int3   
  412768:	cc                   	int3   
  412769:	cc                   	int3   
  41276a:	cc                   	int3   
  41276b:	cc                   	int3   
  41276c:	cc                   	int3   
  41276d:	cc                   	int3   
  41276e:	cc                   	int3   
  41276f:	cc                   	int3   
  412770:	55                   	push   ebp
  412771:	8b ec                	mov    ebp,esp
  412773:	81 ec c0 00 00 00    	sub    esp,0xc0
  412779:	53                   	push   ebx
  41277a:	56                   	push   esi
  41277b:	57                   	push   edi
  41277c:	8d bd 40 ff ff ff    	lea    edi,[ebp-0xc0]
  412782:	b9 30 00 00 00       	mov    ecx,0x30
  412787:	b8 cc cc cc cc       	mov    eax,0xcccccccc
  41278c:	f3 ab                	rep stos DWORD PTR es:[edi],eax
  41278e:	68 54 70 42 00       	push   0x427054
  412793:	b9 d0 da 42 00       	mov    ecx,0x42dad0
  412798:	e8 c1 ee ff ff       	call   0x41165e
  41279d:	5f                   	pop    edi
  41279e:	5e                   	pop    esi
  41279f:	5b                   	pop    ebx
  4127a0:	81 c4 c0 00 00 00    	add    esp,0xc0
  4127a6:	3b ec                	cmp    ebp,esp
  4127a8:	e8 93 ee ff ff       	call   0x411640
  4127ad:	8b e5                	mov    esp,ebp
  4127af:	5d                   	pop    ebp
  4127b0:	c3                   	ret    
  4127b1:	cc                   	int3   
  4127b2:	cc                   	int3   
  4127b3:	cc                   	int3   
  4127b4:	cc                   	int3   
  4127b5:	cc                   	int3   
  4127b6:	cc                   	int3   
  4127b7:	cc                   	int3   
  4127b8:	cc                   	int3   
  4127b9:	cc                   	int3   
  4127ba:	cc                   	int3   
  4127bb:	cc                   	int3   
  4127bc:	cc                   	int3   
  4127bd:	cc                   	int3   
  4127be:	cc                   	int3   
  4127bf:	cc                   	int3   
  4127c0:	cc                   	int3   
  4127c1:	cc                   	int3   
  4127c2:	cc                   	int3   
  4127c3:	cc                   	int3   
  4127c4:	cc                   	int3   
  4127c5:	cc                   	int3   
  4127c6:	cc                   	int3   
  4127c7:	cc                   	int3   
  4127c8:	cc                   	int3   
  4127c9:	cc                   	int3   
  4127ca:	cc                   	int3   
  4127cb:	cc                   	int3   
  4127cc:	cc                   	int3   
  4127cd:	cc                   	int3   
  4127ce:	cc                   	int3   
  4127cf:	cc                   	int3   
  4127d0:	55                   	push   ebp
  4127d1:	8b ec                	mov    ebp,esp
  4127d3:	81 ec c0 00 00 00    	sub    esp,0xc0
  4127d9:	53                   	push   ebx
  4127da:	56                   	push   esi
  4127db:	57                   	push   edi
  4127dc:	8d bd 40 ff ff ff    	lea    edi,[ebp-0xc0]
  4127e2:	b9 30 00 00 00       	mov    ecx,0x30
  4127e7:	b8 cc cc cc cc       	mov    eax,0xcccccccc
  4127ec:	f3 ab                	rep stos DWORD PTR es:[edi],eax
  4127ee:	68 00 71 42 00       	push   0x427100
  4127f3:	b9 e0 da 42 00       	mov    ecx,0x42dae0
  4127f8:	e8 54 f1 ff ff       	call   0x411951
  4127fd:	5f                   	pop    edi
  4127fe:	5e                   	pop    esi
  4127ff:	5b                   	pop    ebx
  412800:	81 c4 c0 00 00 00    	add    esp,0xc0
  412806:	3b ec                	cmp    ebp,esp
  412808:	e8 33 ee ff ff       	call   0x411640
  41280d:	8b e5                	mov    esp,ebp
  41280f:	5d                   	pop    ebp
  412810:	c3                   	ret    
  412811:	cc                   	int3   
  412812:	cc                   	int3   
  412813:	cc                   	int3   
  412814:	cc                   	int3   
  412815:	cc                   	int3   
  412816:	cc                   	int3   
  412817:	cc                   	int3   
  412818:	cc                   	int3   
  412819:	cc                   	int3   
  41281a:	cc                   	int3   
  41281b:	cc                   	int3   
  41281c:	cc                   	int3   
  41281d:	cc                   	int3   
  41281e:	cc                   	int3   
  41281f:	cc                   	int3   
  412820:	cc                   	int3   
  412821:	cc                   	int3   
  412822:	cc                   	int3   
  412823:	cc                   	int3   
  412824:	cc                   	int3   
  412825:	cc                   	int3   
  412826:	cc                   	int3   
  412827:	cc                   	int3   
  412828:	cc                   	int3   
  412829:	cc                   	int3   
  41282a:	cc                   	int3   
  41282b:	cc                   	int3   
  41282c:	cc                   	int3   
  41282d:	cc                   	int3   
  41282e:	cc                   	int3   
  41282f:	cc                   	int3   
  412830:	55                   	push   ebp
  412831:	8b ec                	mov    ebp,esp
  412833:	81 ec c0 00 00 00    	sub    esp,0xc0
  412839:	53                   	push   ebx
  41283a:	56                   	push   esi
  41283b:	57                   	push   edi
  41283c:	8d bd 40 ff ff ff    	lea    edi,[ebp-0xc0]
  412842:	b9 30 00 00 00       	mov    ecx,0x30
  412847:	b8 cc cc cc cc       	mov    eax,0xcccccccc
  41284c:	f3 ab                	rep stos DWORD PTR es:[edi],eax
  41284e:	68 fc 6e 42 00       	push   0x426efc
  412853:	b9 ac da 42 00       	mov    ecx,0x42daac
  412858:	e8 4b ef ff ff       	call   0x4117a8
  41285d:	5f                   	pop    edi
  41285e:	5e                   	pop    esi
  41285f:	5b                   	pop    ebx
  412860:	81 c4 c0 00 00 00    	add    esp,0xc0
  412866:	3b ec                	cmp    ebp,esp
  412868:	e8 d3 ed ff ff       	call   0x411640
  41286d:	8b e5                	mov    esp,ebp
  41286f:	5d                   	pop    ebp
  412870:	c3                   	ret    
  412871:	cc                   	int3   
  412872:	cc                   	int3   
  412873:	cc                   	int3   
  412874:	cc                   	int3   
  412875:	cc                   	int3   
  412876:	cc                   	int3   
  412877:	cc                   	int3   
  412878:	cc                   	int3   
  412879:	cc                   	int3   
  41287a:	cc                   	int3   
  41287b:	cc                   	int3   
  41287c:	cc                   	int3   
  41287d:	cc                   	int3   
  41287e:	cc                   	int3   
  41287f:	cc                   	int3   
  412880:	cc                   	int3   
  412881:	cc                   	int3   
  412882:	cc                   	int3   
  412883:	cc                   	int3   
  412884:	cc                   	int3   
  412885:	cc                   	int3   
  412886:	cc                   	int3   
  412887:	cc                   	int3   
  412888:	cc                   	int3   
  412889:	cc                   	int3   
  41288a:	cc                   	int3   
  41288b:	cc                   	int3   
  41288c:	cc                   	int3   
  41288d:	cc                   	int3   
  41288e:	cc                   	int3   
  41288f:	cc                   	int3   
  412890:	55                   	push   ebp
  412891:	8b ec                	mov    ebp,esp
  412893:	81 ec c0 00 00 00    	sub    esp,0xc0
  412899:	53                   	push   ebx
  41289a:	56                   	push   esi
  41289b:	57                   	push   edi
  41289c:	8d bd 40 ff ff ff    	lea    edi,[ebp-0xc0]
  4128a2:	b9 30 00 00 00       	mov    ecx,0x30
  4128a7:	b8 cc cc cc cc       	mov    eax,0xcccccccc
  4128ac:	f3 ab                	rep stos DWORD PTR es:[edi],eax
  4128ae:	68 04 70 42 00       	push   0x427004
  4128b3:	b9 c8 da 42 00       	mov    ecx,0x42dac8
  4128b8:	e8 5e ef ff ff       	call   0x41181b
  4128bd:	5f                   	pop    edi
  4128be:	5e                   	pop    esi
  4128bf:	5b                   	pop    ebx
  4128c0:	81 c4 c0 00 00 00    	add    esp,0xc0
  4128c6:	3b ec                	cmp    ebp,esp
  4128c8:	e8 73 ed ff ff       	call   0x411640
  4128cd:	8b e5                	mov    esp,ebp
  4128cf:	5d                   	pop    ebp
  4128d0:	c3                   	ret    
  4128d1:	cc                   	int3   
  4128d2:	cc                   	int3   
  4128d3:	cc                   	int3   
  4128d4:	cc                   	int3   
  4128d5:	cc                   	int3   
  4128d6:	cc                   	int3   
  4128d7:	cc                   	int3   
  4128d8:	cc                   	int3   
  4128d9:	cc                   	int3   
  4128da:	cc                   	int3   
  4128db:	cc                   	int3   
  4128dc:	cc                   	int3   
  4128dd:	cc                   	int3   
  4128de:	cc                   	int3   
  4128df:	cc                   	int3   
  4128e0:	cc                   	int3   
  4128e1:	cc                   	int3   
  4128e2:	cc                   	int3   
  4128e3:	cc                   	int3   
  4128e4:	cc                   	int3   
  4128e5:	cc                   	int3   
  4128e6:	cc                   	int3   
  4128e7:	cc                   	int3   
  4128e8:	cc                   	int3   
  4128e9:	cc                   	int3   
  4128ea:	cc                   	int3   
  4128eb:	cc                   	int3   
  4128ec:	cc                   	int3   
  4128ed:	cc                   	int3   
  4128ee:	cc                   	int3   
  4128ef:	cc                   	int3   
  4128f0:	55                   	push   ebp
  4128f1:	8b ec                	mov    ebp,esp
  4128f3:	81 ec c0 00 00 00    	sub    esp,0xc0
  4128f9:	53                   	push   ebx
  4128fa:	56                   	push   esi
  4128fb:	57                   	push   edi
  4128fc:	8d bd 40 ff ff ff    	lea    edi,[ebp-0xc0]
  412902:	b9 30 00 00 00       	mov    ecx,0x30
  412907:	b8 cc cc cc cc       	mov    eax,0xcccccccc
  41290c:	f3 ab                	rep stos DWORD PTR es:[edi],eax
  41290e:	68 40 72 42 00       	push   0x427240
  412913:	b9 04 db 42 00       	mov    ecx,0x42db04
  412918:	e8 d8 e7 ff ff       	call   0x4110f5
  41291d:	5f                   	pop    edi
  41291e:	5e                   	pop    esi
  41291f:	5b                   	pop    ebx
  412920:	81 c4 c0 00 00 00    	add    esp,0xc0
  412926:	3b ec                	cmp    ebp,esp
  412928:	e8 13 ed ff ff       	call   0x411640
  41292d:	8b e5                	mov    esp,ebp
  41292f:	5d                   	pop    ebp
  412930:	c3                   	ret    
  412931:	cc                   	int3   
  412932:	cc                   	int3   
  412933:	cc                   	int3   
  412934:	cc                   	int3   
  412935:	cc                   	int3   
  412936:	cc                   	int3   
  412937:	cc                   	int3   
  412938:	cc                   	int3   
  412939:	cc                   	int3   
  41293a:	cc                   	int3   
  41293b:	cc                   	int3   
  41293c:	cc                   	int3   
  41293d:	cc                   	int3   
  41293e:	cc                   	int3   
  41293f:	cc                   	int3   
  412940:	cc                   	int3   
  412941:	cc                   	int3   
  412942:	cc                   	int3   
  412943:	cc                   	int3   
  412944:	cc                   	int3   
  412945:	cc                   	int3   
  412946:	cc                   	int3   
  412947:	cc                   	int3   
  412948:	cc                   	int3   
  412949:	cc                   	int3   
  41294a:	cc                   	int3   
  41294b:	cc                   	int3   
  41294c:	cc                   	int3   
  41294d:	cc                   	int3   
  41294e:	cc                   	int3   
  41294f:	cc                   	int3   
  412950:	55                   	push   ebp
  412951:	8b ec                	mov    ebp,esp
  412953:	81 ec c0 00 00 00    	sub    esp,0xc0
  412959:	53                   	push   ebx
  41295a:	56                   	push   esi
  41295b:	57                   	push   edi
  41295c:	8d bd 40 ff ff ff    	lea    edi,[ebp-0xc0]
  412962:	b9 30 00 00 00       	mov    ecx,0x30
  412967:	b8 cc cc cc cc       	mov    eax,0xcccccccc
  41296c:	f3 ab                	rep stos DWORD PTR es:[edi],eax
  41296e:	68 bc 71 42 00       	push   0x4271bc
  412973:	b9 f4 da 42 00       	mov    ecx,0x42daf4
  412978:	e8 c7 ed ff ff       	call   0x411744
  41297d:	5f                   	pop    edi
  41297e:	5e                   	pop    esi
  41297f:	5b                   	pop    ebx
  412980:	81 c4 c0 00 00 00    	add    esp,0xc0
  412986:	3b ec                	cmp    ebp,esp
  412988:	e8 b3 ec ff ff       	call   0x411640
  41298d:	8b e5                	mov    esp,ebp
  41298f:	5d                   	pop    ebp
  412990:	c3                   	ret    
  412991:	cc                   	int3   
  412992:	cc                   	int3   
  412993:	cc                   	int3   
  412994:	cc                   	int3   
  412995:	cc                   	int3   
  412996:	cc                   	int3   
  412997:	cc                   	int3   
  412998:	cc                   	int3   
  412999:	cc                   	int3   
  41299a:	cc                   	int3   
  41299b:	cc                   	int3   
  41299c:	cc                   	int3   
  41299d:	cc                   	int3   
  41299e:	cc                   	int3   
  41299f:	cc                   	int3   
  4129a0:	cc                   	int3   
  4129a1:	cc                   	int3   
  4129a2:	cc                   	int3   
  4129a3:	cc                   	int3   
  4129a4:	cc                   	int3   
  4129a5:	cc                   	int3   
  4129a6:	cc                   	int3   
  4129a7:	cc                   	int3   
  4129a8:	cc                   	int3   
  4129a9:	cc                   	int3   
  4129aa:	cc                   	int3   
  4129ab:	cc                   	int3   
  4129ac:	cc                   	int3   
  4129ad:	cc                   	int3   
  4129ae:	cc                   	int3   
  4129af:	cc                   	int3   
  4129b0:	55                   	push   ebp
  4129b1:	8b ec                	mov    ebp,esp
  4129b3:	81 ec c0 00 00 00    	sub    esp,0xc0
  4129b9:	53                   	push   ebx
  4129ba:	56                   	push   esi
  4129bb:	57                   	push   edi
  4129bc:	8d bd 40 ff ff ff    	lea    edi,[ebp-0xc0]
  4129c2:	b9 30 00 00 00       	mov    ecx,0x30
  4129c7:	b8 cc cc cc cc       	mov    eax,0xcccccccc
  4129cc:	f3 ab                	rep stos DWORD PTR es:[edi],eax
  4129ce:	68 a8 70 42 00       	push   0x4270a8
  4129d3:	b9 d8 da 42 00       	mov    ecx,0x42dad8
  4129d8:	e8 bd ec ff ff       	call   0x41169a
  4129dd:	5f                   	pop    edi
  4129de:	5e                   	pop    esi
  4129df:	5b                   	pop    ebx
  4129e0:	81 c4 c0 00 00 00    	add    esp,0xc0
  4129e6:	3b ec                	cmp    ebp,esp
  4129e8:	e8 53 ec ff ff       	call   0x411640
  4129ed:	8b e5                	mov    esp,ebp
  4129ef:	5d                   	pop    ebp
  4129f0:	c3                   	ret    
  4129f1:	cc                   	int3   
  4129f2:	cc                   	int3   
  4129f3:	cc                   	int3   
  4129f4:	cc                   	int3   
  4129f5:	cc                   	int3   
  4129f6:	cc                   	int3   
  4129f7:	cc                   	int3   
  4129f8:	cc                   	int3   
  4129f9:	cc                   	int3   
  4129fa:	cc                   	int3   
  4129fb:	cc                   	int3   
  4129fc:	cc                   	int3   
  4129fd:	cc                   	int3   
  4129fe:	cc                   	int3   
  4129ff:	cc                   	int3   
  412a00:	cc                   	int3   
  412a01:	cc                   	int3   
  412a02:	cc                   	int3   
  412a03:	cc                   	int3   
  412a04:	cc                   	int3   
  412a05:	cc                   	int3   
  412a06:	cc                   	int3   
  412a07:	cc                   	int3   
  412a08:	cc                   	int3   
  412a09:	cc                   	int3   
  412a0a:	cc                   	int3   
  412a0b:	cc                   	int3   
  412a0c:	cc                   	int3   
  412a0d:	cc                   	int3   
  412a0e:	cc                   	int3   
  412a0f:	cc                   	int3   
  412a10:	55                   	push   ebp
  412a11:	8b ec                	mov    ebp,esp
  412a13:	81 ec c0 00 00 00    	sub    esp,0xc0
  412a19:	53                   	push   ebx
  412a1a:	56                   	push   esi
  412a1b:	57                   	push   edi
  412a1c:	8d bd 40 ff ff ff    	lea    edi,[ebp-0xc0]
  412a22:	b9 30 00 00 00       	mov    ecx,0x30
  412a27:	b8 cc cc cc cc       	mov    eax,0xcccccccc
  412a2c:	f3 ab                	rep stos DWORD PTR es:[edi],eax
  412a2e:	68 40 6f 42 00       	push   0x426f40
  412a33:	b9 b4 da 42 00       	mov    ecx,0x42dab4
  412a38:	e8 8e e8 ff ff       	call   0x4112cb
  412a3d:	5f                   	pop    edi
  412a3e:	5e                   	pop    esi
  412a3f:	5b                   	pop    ebx
  412a40:	81 c4 c0 00 00 00    	add    esp,0xc0
  412a46:	3b ec                	cmp    ebp,esp
  412a48:	e8 f3 eb ff ff       	call   0x411640
  412a4d:	8b e5                	mov    esp,ebp
  412a4f:	5d                   	pop    ebp
  412a50:	c3                   	ret    
  412a51:	cc                   	int3   
  412a52:	cc                   	int3   
  412a53:	cc                   	int3   
  412a54:	cc                   	int3   
  412a55:	cc                   	int3   
  412a56:	cc                   	int3   
  412a57:	cc                   	int3   
  412a58:	cc                   	int3   
  412a59:	cc                   	int3   
  412a5a:	cc                   	int3   
  412a5b:	cc                   	int3   
  412a5c:	cc                   	int3   
  412a5d:	cc                   	int3   
  412a5e:	cc                   	int3   
  412a5f:	cc                   	int3   
  412a60:	cc                   	int3   
  412a61:	cc                   	int3   
  412a62:	cc                   	int3   
  412a63:	cc                   	int3   
  412a64:	cc                   	int3   
  412a65:	cc                   	int3   
  412a66:	cc                   	int3   
  412a67:	cc                   	int3   
  412a68:	cc                   	int3   
  412a69:	cc                   	int3   
  412a6a:	cc                   	int3   
  412a6b:	cc                   	int3   
  412a6c:	cc                   	int3   
  412a6d:	cc                   	int3   
  412a6e:	cc                   	int3   
  412a6f:	cc                   	int3   
  412a70:	55                   	push   ebp
  412a71:	8b ec                	mov    ebp,esp
  412a73:	81 ec c0 00 00 00    	sub    esp,0xc0
  412a79:	53                   	push   ebx
  412a7a:	56                   	push   esi
  412a7b:	57                   	push   edi
  412a7c:	8d bd 40 ff ff ff    	lea    edi,[ebp-0xc0]
  412a82:	b9 30 00 00 00       	mov    ecx,0x30
  412a87:	b8 cc cc cc cc       	mov    eax,0xcccccccc
  412a8c:	f3 ab                	rep stos DWORD PTR es:[edi],eax
  412a8e:	68 88 6f 42 00       	push   0x426f88
  412a93:	b9 bc da 42 00       	mov    ecx,0x42dabc
  412a98:	e8 99 e6 ff ff       	call   0x411136
  412a9d:	5f                   	pop    edi
  412a9e:	5e                   	pop    esi
  412a9f:	5b                   	pop    ebx
  412aa0:	81 c4 c0 00 00 00    	add    esp,0xc0
  412aa6:	3b ec                	cmp    ebp,esp
  412aa8:	e8 93 eb ff ff       	call   0x411640
  412aad:	8b e5                	mov    esp,ebp
  412aaf:	5d                   	pop    ebp
  412ab0:	c3                   	ret    
  412ab1:	cc                   	int3   
  412ab2:	cc                   	int3   
  412ab3:	cc                   	int3   
  412ab4:	cc                   	int3   
  412ab5:	cc                   	int3   
  412ab6:	cc                   	int3   
  412ab7:	cc                   	int3   
  412ab8:	cc                   	int3   
  412ab9:	cc                   	int3   
  412aba:	cc                   	int3   
  412abb:	cc                   	int3   
  412abc:	cc                   	int3   
  412abd:	cc                   	int3   
  412abe:	cc                   	int3   
  412abf:	cc                   	int3   
  412ac0:	cc                   	int3   
  412ac1:	cc                   	int3   
  412ac2:	cc                   	int3   
  412ac3:	cc                   	int3   
  412ac4:	cc                   	int3   
  412ac5:	cc                   	int3   
  412ac6:	cc                   	int3   
  412ac7:	cc                   	int3   
  412ac8:	cc                   	int3   
  412ac9:	cc                   	int3   
  412aca:	cc                   	int3   
  412acb:	cc                   	int3   
  412acc:	cc                   	int3   
  412acd:	cc                   	int3   
  412ace:	cc                   	int3   
  412acf:	cc                   	int3   
  412ad0:	55                   	push   ebp
  412ad1:	8b ec                	mov    ebp,esp
  412ad3:	81 ec c0 00 00 00    	sub    esp,0xc0
  412ad9:	53                   	push   ebx
  412ada:	56                   	push   esi
  412adb:	57                   	push   edi
  412adc:	8d bd 40 ff ff ff    	lea    edi,[ebp-0xc0]
  412ae2:	b9 30 00 00 00       	mov    ecx,0x30
  412ae7:	b8 cc cc cc cc       	mov    eax,0xcccccccc
  412aec:	f3 ab                	rep stos DWORD PTR es:[edi],eax
  412aee:	68 5c 6f 42 00       	push   0x426f5c
  412af3:	b9 b8 da 42 00       	mov    ecx,0x42dab8
  412af8:	e8 bd e9 ff ff       	call   0x4114ba
  412afd:	5f                   	pop    edi
  412afe:	5e                   	pop    esi
  412aff:	5b                   	pop    ebx
  412b00:	81 c4 c0 00 00 00    	add    esp,0xc0
  412b06:	3b ec                	cmp    ebp,esp
  412b08:	e8 33 eb ff ff       	call   0x411640
  412b0d:	8b e5                	mov    esp,ebp
  412b0f:	5d                   	pop    ebp
  412b10:	c3                   	ret    
  412b11:	cc                   	int3   
  412b12:	cc                   	int3   
  412b13:	cc                   	int3   
  412b14:	cc                   	int3   
  412b15:	cc                   	int3   
  412b16:	cc                   	int3   
  412b17:	cc                   	int3   
  412b18:	cc                   	int3   
  412b19:	cc                   	int3   
  412b1a:	cc                   	int3   
  412b1b:	cc                   	int3   
  412b1c:	cc                   	int3   
  412b1d:	cc                   	int3   
  412b1e:	cc                   	int3   
  412b1f:	cc                   	int3   
  412b20:	cc                   	int3   
  412b21:	cc                   	int3   
  412b22:	cc                   	int3   
  412b23:	cc                   	int3   
  412b24:	cc                   	int3   
  412b25:	cc                   	int3   
  412b26:	cc                   	int3   
  412b27:	cc                   	int3   
  412b28:	cc                   	int3   
  412b29:	cc                   	int3   
  412b2a:	cc                   	int3   
  412b2b:	cc                   	int3   
  412b2c:	cc                   	int3   
  412b2d:	cc                   	int3   
  412b2e:	cc                   	int3   
  412b2f:	cc                   	int3   
  412b30:	55                   	push   ebp
  412b31:	8b ec                	mov    ebp,esp
  412b33:	81 ec c0 00 00 00    	sub    esp,0xc0
  412b39:	53                   	push   ebx
  412b3a:	56                   	push   esi
  412b3b:	57                   	push   edi
  412b3c:	8d bd 40 ff ff ff    	lea    edi,[ebp-0xc0]
  412b42:	b9 30 00 00 00       	mov    ecx,0x30
  412b47:	b8 cc cc cc cc       	mov    eax,0xcccccccc
  412b4c:	f3 ab                	rep stos DWORD PTR es:[edi],eax
  412b4e:	68 f8 71 42 00       	push   0x4271f8
  412b53:	b9 fc da 42 00       	mov    ecx,0x42dafc
  412b58:	e8 eb ec ff ff       	call   0x411848
  412b5d:	5f                   	pop    edi
  412b5e:	5e                   	pop    esi
  412b5f:	5b                   	pop    ebx
  412b60:	81 c4 c0 00 00 00    	add    esp,0xc0
  412b66:	3b ec                	cmp    ebp,esp
  412b68:	e8 d3 ea ff ff       	call   0x411640
  412b6d:	8b e5                	mov    esp,ebp
  412b6f:	5d                   	pop    ebp
  412b70:	c3                   	ret    
  412b71:	cc                   	int3   
  412b72:	cc                   	int3   
  412b73:	cc                   	int3   
  412b74:	cc                   	int3   
  412b75:	cc                   	int3   
  412b76:	cc                   	int3   
  412b77:	cc                   	int3   
  412b78:	cc                   	int3   
  412b79:	cc                   	int3   
  412b7a:	cc                   	int3   
  412b7b:	cc                   	int3   
  412b7c:	cc                   	int3   
  412b7d:	cc                   	int3   
  412b7e:	cc                   	int3   
  412b7f:	cc                   	int3   
  412b80:	cc                   	int3   
  412b81:	cc                   	int3   
  412b82:	cc                   	int3   
  412b83:	cc                   	int3   
  412b84:	cc                   	int3   
  412b85:	cc                   	int3   
  412b86:	cc                   	int3   
  412b87:	cc                   	int3   
  412b88:	cc                   	int3   
  412b89:	cc                   	int3   
  412b8a:	cc                   	int3   
  412b8b:	cc                   	int3   
  412b8c:	cc                   	int3   
  412b8d:	cc                   	int3   
  412b8e:	cc                   	int3   
  412b8f:	cc                   	int3   
  412b90:	55                   	push   ebp
  412b91:	8b ec                	mov    ebp,esp
  412b93:	81 ec c0 00 00 00    	sub    esp,0xc0
  412b99:	53                   	push   ebx
  412b9a:	56                   	push   esi
  412b9b:	57                   	push   edi
  412b9c:	8d bd 40 ff ff ff    	lea    edi,[ebp-0xc0]
  412ba2:	b9 30 00 00 00       	mov    ecx,0x30
  412ba7:	b8 cc cc cc cc       	mov    eax,0xcccccccc
  412bac:	f3 ab                	rep stos DWORD PTR es:[edi],eax
  412bae:	68 84 70 42 00       	push   0x427084
  412bb3:	b9 d4 da 42 00       	mov    ecx,0x42dad4
  412bb8:	e8 89 e4 ff ff       	call   0x411046
  412bbd:	5f                   	pop    edi
  412bbe:	5e                   	pop    esi
  412bbf:	5b                   	pop    ebx
  412bc0:	81 c4 c0 00 00 00    	add    esp,0xc0
  412bc6:	3b ec                	cmp    ebp,esp
  412bc8:	e8 73 ea ff ff       	call   0x411640
  412bcd:	8b e5                	mov    esp,ebp
  412bcf:	5d                   	pop    ebp
  412bd0:	c3                   	ret    
  412bd1:	cc                   	int3   
  412bd2:	cc                   	int3   
  412bd3:	cc                   	int3   
  412bd4:	cc                   	int3   
  412bd5:	cc                   	int3   
  412bd6:	cc                   	int3   
  412bd7:	cc                   	int3   
  412bd8:	cc                   	int3   
  412bd9:	cc                   	int3   
  412bda:	cc                   	int3   
  412bdb:	cc                   	int3   
  412bdc:	cc                   	int3   
  412bdd:	cc                   	int3   
  412bde:	cc                   	int3   
  412bdf:	cc                   	int3   
  412be0:	cc                   	int3   
  412be1:	cc                   	int3   
  412be2:	cc                   	int3   
  412be3:	cc                   	int3   
  412be4:	cc                   	int3   
  412be5:	cc                   	int3   
  412be6:	cc                   	int3   
  412be7:	cc                   	int3   
  412be8:	cc                   	int3   
  412be9:	cc                   	int3   
  412bea:	cc                   	int3   
  412beb:	cc                   	int3   
  412bec:	cc                   	int3   
  412bed:	cc                   	int3   
  412bee:	cc                   	int3   
  412bef:	cc                   	int3   
  412bf0:	55                   	push   ebp
  412bf1:	8b ec                	mov    ebp,esp
  412bf3:	81 ec c0 00 00 00    	sub    esp,0xc0
  412bf9:	53                   	push   ebx
  412bfa:	56                   	push   esi
  412bfb:	57                   	push   edi
  412bfc:	8d bd 40 ff ff ff    	lea    edi,[ebp-0xc0]
  412c02:	b9 30 00 00 00       	mov    ecx,0x30
  412c07:	b8 cc cc cc cc       	mov    eax,0xcccccccc
  412c0c:	f3 ab                	rep stos DWORD PTR es:[edi],eax
  412c0e:	68 70 71 42 00       	push   0x427170
  412c13:	b9 ec da 42 00       	mov    ecx,0x42daec
  412c18:	e8 91 e5 ff ff       	call   0x4111ae
  412c1d:	5f                   	pop    edi
  412c1e:	5e                   	pop    esi
  412c1f:	5b                   	pop    ebx
  412c20:	81 c4 c0 00 00 00    	add    esp,0xc0
  412c26:	3b ec                	cmp    ebp,esp
  412c28:	e8 13 ea ff ff       	call   0x411640
  412c2d:	8b e5                	mov    esp,ebp
  412c2f:	5d                   	pop    ebp
  412c30:	c3                   	ret    
  412c31:	cc                   	int3   
  412c32:	cc                   	int3   
  412c33:	cc                   	int3   
  412c34:	cc                   	int3   
  412c35:	cc                   	int3   
  412c36:	cc                   	int3   
  412c37:	cc                   	int3   
  412c38:	cc                   	int3   
  412c39:	cc                   	int3   
  412c3a:	cc                   	int3   
  412c3b:	cc                   	int3   
  412c3c:	cc                   	int3   
  412c3d:	cc                   	int3   
  412c3e:	cc                   	int3   
  412c3f:	cc                   	int3   
  412c40:	cc                   	int3   
  412c41:	cc                   	int3   
  412c42:	cc                   	int3   
  412c43:	cc                   	int3   
  412c44:	cc                   	int3   
  412c45:	cc                   	int3   
  412c46:	cc                   	int3   
  412c47:	cc                   	int3   
  412c48:	cc                   	int3   
  412c49:	cc                   	int3   
  412c4a:	cc                   	int3   
  412c4b:	cc                   	int3   
  412c4c:	cc                   	int3   
  412c4d:	cc                   	int3   
  412c4e:	cc                   	int3   
  412c4f:	cc                   	int3   
  412c50:	55                   	push   ebp
  412c51:	8b ec                	mov    ebp,esp
  412c53:	81 ec c0 00 00 00    	sub    esp,0xc0
  412c59:	53                   	push   ebx
  412c5a:	56                   	push   esi
  412c5b:	57                   	push   edi
  412c5c:	8d bd 40 ff ff ff    	lea    edi,[ebp-0xc0]
  412c62:	b9 30 00 00 00       	mov    ecx,0x30
  412c67:	b8 cc cc cc cc       	mov    eax,0xcccccccc
  412c6c:	f3 ab                	rep stos DWORD PTR es:[edi],eax
  412c6e:	68 98 71 42 00       	push   0x427198
  412c73:	b9 f0 da 42 00       	mov    ecx,0x42daf0
  412c78:	e8 f8 eb ff ff       	call   0x411875
  412c7d:	5f                   	pop    edi
  412c7e:	5e                   	pop    esi
  412c7f:	5b                   	pop    ebx
  412c80:	81 c4 c0 00 00 00    	add    esp,0xc0
  412c86:	3b ec                	cmp    ebp,esp
  412c88:	e8 b3 e9 ff ff       	call   0x411640
  412c8d:	8b e5                	mov    esp,ebp
  412c8f:	5d                   	pop    ebp
  412c90:	c3                   	ret    
  412c91:	cc                   	int3   
  412c92:	cc                   	int3   
  412c93:	cc                   	int3   
  412c94:	cc                   	int3   
  412c95:	cc                   	int3   
  412c96:	cc                   	int3   
  412c97:	cc                   	int3   
  412c98:	cc                   	int3   
  412c99:	cc                   	int3   
  412c9a:	cc                   	int3   
  412c9b:	cc                   	int3   
  412c9c:	cc                   	int3   
  412c9d:	cc                   	int3   
  412c9e:	cc                   	int3   
  412c9f:	cc                   	int3   
  412ca0:	cc                   	int3   
  412ca1:	cc                   	int3   
  412ca2:	cc                   	int3   
  412ca3:	cc                   	int3   
  412ca4:	cc                   	int3   
  412ca5:	cc                   	int3   
  412ca6:	cc                   	int3   
  412ca7:	cc                   	int3   
  412ca8:	cc                   	int3   
  412ca9:	cc                   	int3   
  412caa:	cc                   	int3   
  412cab:	cc                   	int3   
  412cac:	cc                   	int3   
  412cad:	cc                   	int3   
  412cae:	cc                   	int3   
  412caf:	cc                   	int3   
  412cb0:	55                   	push   ebp
  412cb1:	8b ec                	mov    ebp,esp
  412cb3:	81 ec c0 00 00 00    	sub    esp,0xc0
  412cb9:	53                   	push   ebx
  412cba:	56                   	push   esi
  412cbb:	57                   	push   edi
  412cbc:	8d bd 40 ff ff ff    	lea    edi,[ebp-0xc0]
  412cc2:	b9 30 00 00 00       	mov    ecx,0x30
  412cc7:	b8 cc cc cc cc       	mov    eax,0xcccccccc
  412ccc:	f3 ab                	rep stos DWORD PTR es:[edi],eax
  412cce:	68 20 72 42 00       	push   0x427220
  412cd3:	b9 00 db 42 00       	mov    ecx,0x42db00
  412cd8:	e8 c9 e7 ff ff       	call   0x4114a6
  412cdd:	5f                   	pop    edi
  412cde:	5e                   	pop    esi
  412cdf:	5b                   	pop    ebx
  412ce0:	81 c4 c0 00 00 00    	add    esp,0xc0
  412ce6:	3b ec                	cmp    ebp,esp
  412ce8:	e8 53 e9 ff ff       	call   0x411640
  412ced:	8b e5                	mov    esp,ebp
  412cef:	5d                   	pop    ebp
  412cf0:	c3                   	ret    
  412cf1:	cc                   	int3   
  412cf2:	cc                   	int3   
  412cf3:	cc                   	int3   
  412cf4:	cc                   	int3   
  412cf5:	cc                   	int3   
  412cf6:	cc                   	int3   
  412cf7:	cc                   	int3   
  412cf8:	cc                   	int3   
  412cf9:	cc                   	int3   
  412cfa:	cc                   	int3   
  412cfb:	cc                   	int3   
  412cfc:	cc                   	int3   
  412cfd:	cc                   	int3   
  412cfe:	cc                   	int3   
  412cff:	cc                   	int3   
  412d00:	cc                   	int3   
  412d01:	cc                   	int3   
  412d02:	cc                   	int3   
  412d03:	cc                   	int3   
  412d04:	cc                   	int3   
  412d05:	cc                   	int3   
  412d06:	cc                   	int3   
  412d07:	cc                   	int3   
  412d08:	cc                   	int3   
  412d09:	cc                   	int3   
  412d0a:	cc                   	int3   
  412d0b:	cc                   	int3   
  412d0c:	cc                   	int3   
  412d0d:	cc                   	int3   
  412d0e:	cc                   	int3   
  412d0f:	cc                   	int3   
  412d10:	55                   	push   ebp
  412d11:	8b ec                	mov    ebp,esp
  412d13:	81 ec c0 00 00 00    	sub    esp,0xc0
  412d19:	53                   	push   ebx
  412d1a:	56                   	push   esi
  412d1b:	57                   	push   edi
  412d1c:	8d bd 40 ff ff ff    	lea    edi,[ebp-0xc0]
  412d22:	b9 30 00 00 00       	mov    ecx,0x30
  412d27:	b8 cc cc cc cc       	mov    eax,0xcccccccc
  412d2c:	f3 ab                	rep stos DWORD PTR es:[edi],eax
  412d2e:	68 2c 71 42 00       	push   0x42712c
  412d33:	b9 e4 da 42 00       	mov    ecx,0x42dae4
  412d38:	e8 00 ec ff ff       	call   0x41193d
  412d3d:	5f                   	pop    edi
  412d3e:	5e                   	pop    esi
  412d3f:	5b                   	pop    ebx
  412d40:	81 c4 c0 00 00 00    	add    esp,0xc0
  412d46:	3b ec                	cmp    ebp,esp
  412d48:	e8 f3 e8 ff ff       	call   0x411640
  412d4d:	8b e5                	mov    esp,ebp
  412d4f:	5d                   	pop    ebp
  412d50:	c3                   	ret    
  412d51:	cc                   	int3   
  412d52:	cc                   	int3   
  412d53:	cc                   	int3   
  412d54:	cc                   	int3   
  412d55:	cc                   	int3   
  412d56:	cc                   	int3   
  412d57:	cc                   	int3   
  412d58:	cc                   	int3   
  412d59:	cc                   	int3   
  412d5a:	cc                   	int3   
  412d5b:	cc                   	int3   
  412d5c:	cc                   	int3   
  412d5d:	cc                   	int3   
  412d5e:	cc                   	int3   
  412d5f:	cc                   	int3   
  412d60:	cc                   	int3   
  412d61:	cc                   	int3   
  412d62:	cc                   	int3   
  412d63:	cc                   	int3   
  412d64:	cc                   	int3   
  412d65:	cc                   	int3   
  412d66:	cc                   	int3   
  412d67:	cc                   	int3   
  412d68:	cc                   	int3   
  412d69:	cc                   	int3   
  412d6a:	cc                   	int3   
  412d6b:	cc                   	int3   
  412d6c:	cc                   	int3   
  412d6d:	cc                   	int3   
  412d6e:	cc                   	int3   
  412d6f:	cc                   	int3   
  412d70:	55                   	push   ebp
  412d71:	8b ec                	mov    ebp,esp
  412d73:	81 ec c0 00 00 00    	sub    esp,0xc0
  412d79:	53                   	push   ebx
  412d7a:	56                   	push   esi
  412d7b:	57                   	push   edi
  412d7c:	8d bd 40 ff ff ff    	lea    edi,[ebp-0xc0]
  412d82:	b9 30 00 00 00       	mov    ecx,0x30
  412d87:	b8 cc cc cc cc       	mov    eax,0xcccccccc
  412d8c:	f3 ab                	rep stos DWORD PTR es:[edi],eax
  412d8e:	68 d8 71 42 00       	push   0x4271d8
  412d93:	b9 f8 da 42 00       	mov    ecx,0x42daf8
  412d98:	e8 08 e3 ff ff       	call   0x4110a5
  412d9d:	5f                   	pop    edi
  412d9e:	5e                   	pop    esi
  412d9f:	5b                   	pop    ebx
  412da0:	81 c4 c0 00 00 00    	add    esp,0xc0
  412da6:	3b ec                	cmp    ebp,esp
  412da8:	e8 93 e8 ff ff       	call   0x411640
  412dad:	8b e5                	mov    esp,ebp
  412daf:	5d                   	pop    ebp
  412db0:	c3                   	ret    
  412db1:	cc                   	int3   
  412db2:	cc                   	int3   
  412db3:	cc                   	int3   
  412db4:	cc                   	int3   
  412db5:	cc                   	int3   
  412db6:	cc                   	int3   
  412db7:	cc                   	int3   
  412db8:	cc                   	int3   
  412db9:	cc                   	int3   
  412dba:	cc                   	int3   
  412dbb:	cc                   	int3   
  412dbc:	cc                   	int3   
  412dbd:	cc                   	int3   
  412dbe:	cc                   	int3   
  412dbf:	cc                   	int3   
  412dc0:	cc                   	int3   
  412dc1:	cc                   	int3   
  412dc2:	cc                   	int3   
  412dc3:	cc                   	int3   
  412dc4:	cc                   	int3   
  412dc5:	cc                   	int3   
  412dc6:	cc                   	int3   
  412dc7:	cc                   	int3   
  412dc8:	cc                   	int3   
  412dc9:	cc                   	int3   
  412dca:	cc                   	int3   
  412dcb:	cc                   	int3   
  412dcc:	cc                   	int3   
  412dcd:	cc                   	int3   
  412dce:	cc                   	int3   
  412dcf:	cc                   	int3   
  412dd0:	55                   	push   ebp
  412dd1:	8b ec                	mov    ebp,esp
  412dd3:	81 ec c0 00 00 00    	sub    esp,0xc0
  412dd9:	53                   	push   ebx
  412dda:	56                   	push   esi
  412ddb:	57                   	push   edi
  412ddc:	8d bd 40 ff ff ff    	lea    edi,[ebp-0xc0]
  412de2:	b9 30 00 00 00       	mov    ecx,0x30
  412de7:	b8 cc cc cc cc       	mov    eax,0xcccccccc
  412dec:	f3 ab                	rep stos DWORD PTR es:[edi],eax
  412dee:	68 b0 6f 42 00       	push   0x426fb0
  412df3:	b9 c0 da 42 00       	mov    ecx,0x42dac0
  412df8:	e8 3f e2 ff ff       	call   0x41103c
  412dfd:	5f                   	pop    edi
  412dfe:	5e                   	pop    esi
  412dff:	5b                   	pop    ebx
  412e00:	81 c4 c0 00 00 00    	add    esp,0xc0
  412e06:	3b ec                	cmp    ebp,esp
  412e08:	e8 33 e8 ff ff       	call   0x411640
  412e0d:	8b e5                	mov    esp,ebp
  412e0f:	5d                   	pop    ebp
  412e10:	c3                   	ret    
  412e11:	cc                   	int3   
  412e12:	cc                   	int3   
  412e13:	cc                   	int3   
  412e14:	cc                   	int3   
  412e15:	cc                   	int3   
  412e16:	cc                   	int3   
  412e17:	cc                   	int3   
  412e18:	cc                   	int3   
  412e19:	cc                   	int3   
  412e1a:	cc                   	int3   
  412e1b:	cc                   	int3   
  412e1c:	cc                   	int3   
  412e1d:	cc                   	int3   
  412e1e:	cc                   	int3   
  412e1f:	cc                   	int3   
  412e20:	cc                   	int3   
  412e21:	cc                   	int3   
  412e22:	cc                   	int3   
  412e23:	cc                   	int3   
  412e24:	cc                   	int3   
  412e25:	cc                   	int3   
  412e26:	cc                   	int3   
  412e27:	cc                   	int3   
  412e28:	cc                   	int3   
  412e29:	cc                   	int3   
  412e2a:	cc                   	int3   
  412e2b:	cc                   	int3   
  412e2c:	cc                   	int3   
  412e2d:	cc                   	int3   
  412e2e:	cc                   	int3   
  412e2f:	cc                   	int3   
  412e30:	55                   	push   ebp
  412e31:	8b ec                	mov    ebp,esp
  412e33:	81 ec cc 00 00 00    	sub    esp,0xcc
  412e39:	53                   	push   ebx
  412e3a:	56                   	push   esi
  412e3b:	57                   	push   edi
  412e3c:	8d bd 34 ff ff ff    	lea    edi,[ebp-0xcc]
  412e42:	b9 33 00 00 00       	mov    ecx,0x33
  412e47:	b8 cc cc cc cc       	mov    eax,0xcccccccc
  412e4c:	f3 ab                	rep stos DWORD PTR es:[edi],eax
  412e4e:	33 c0                	xor    eax,eax
  412e50:	88 85 3b ff ff ff    	mov    BYTE PTR [ebp-0xc5],al
  412e56:	5f                   	pop    edi
  412e57:	5e                   	pop    esi
  412e58:	5b                   	pop    ebx
  412e59:	8b e5                	mov    esp,ebp
  412e5b:	5d                   	pop    ebp
  412e5c:	c3                   	ret    
  412e5d:	cc                   	int3   
  412e5e:	cc                   	int3   
  412e5f:	cc                   	int3   
  412e60:	cc                   	int3   
  412e61:	cc                   	int3   
  412e62:	cc                   	int3   
  412e63:	cc                   	int3   
  412e64:	cc                   	int3   
  412e65:	cc                   	int3   
  412e66:	cc                   	int3   
  412e67:	cc                   	int3   
  412e68:	b9 8c db 42 00       	mov    ecx,0x42db8c
  412e6d:	e8 0b e2 ff ff       	call   0x41107d
  412e72:	68 5b 41 42 00       	push   0x42415b
  412e77:	e8 a5 e3 ff ff       	call   0x411221
  412e7c:	59                   	pop    ecx
  412e7d:	c3                   	ret    
  412e7e:	cc                   	int3   
  412e7f:	cc                   	int3   
  412e80:	cc                   	int3   
  412e81:	cc                   	int3   
  412e82:	cc                   	int3   
  412e83:	cc                   	int3   
  412e84:	cc                   	int3   
  412e85:	cc                   	int3   
  412e86:	cc                   	int3   
  412e87:	cc                   	int3   
  412e88:	cc                   	int3   
  412e89:	cc                   	int3   
  412e8a:	cc                   	int3   
  412e8b:	cc                   	int3   
  412e8c:	cc                   	int3   
  412e8d:	cc                   	int3   
  412e8e:	cc                   	int3   
  412e8f:	cc                   	int3   
  412e90:	55                   	push   ebp
  412e91:	8b ec                	mov    ebp,esp
  412e93:	68 70 41 42 00       	push   0x424170
  412e98:	e8 84 e3 ff ff       	call   0x411221
  412e9d:	83 c4 04             	add    esp,0x4
  412ea0:	5d                   	pop    ebp
  412ea1:	c3                   	ret    
  412ea2:	cc                   	int3   
  412ea3:	cc                   	int3   
  412ea4:	cc                   	int3   
  412ea5:	cc                   	int3   
  412ea6:	cc                   	int3   
  412ea7:	cc                   	int3   
  412ea8:	cc                   	int3   
  412ea9:	cc                   	int3   
  412eaa:	cc                   	int3   
  412eab:	cc                   	int3   
  412eac:	cc                   	int3   
  412ead:	cc                   	int3   
  412eae:	cc                   	int3   
  412eaf:	cc                   	int3   
  412eb0:	55                   	push   ebp
  412eb1:	8b ec                	mov    ebp,esp
  412eb3:	51                   	push   ecx
  412eb4:	33 c0                	xor    eax,eax
  412eb6:	88 45 ff             	mov    BYTE PTR [ebp-0x1],al
  412eb9:	8b e5                	mov    esp,ebp
  412ebb:	5d                   	pop    ebp
  412ebc:	c3                   	ret    
  412ebd:	cc                   	int3   
  412ebe:	cc                   	int3   
  412ebf:	cc                   	int3   
  412ec0:	55                   	push   ebp
  412ec1:	8b ec                	mov    ebp,esp
  412ec3:	51                   	push   ecx
  412ec4:	33 c0                	xor    eax,eax
  412ec6:	88 45 ff             	mov    BYTE PTR [ebp-0x1],al
  412ec9:	8b e5                	mov    esp,ebp
  412ecb:	5d                   	pop    ebp
  412ecc:	c3                   	ret    
  412ecd:	cc                   	int3   
  412ece:	cc                   	int3   
  412ecf:	cc                   	int3   
  412ed0:	cc                   	int3   
  412ed1:	cc                   	int3   
  412ed2:	cc                   	int3   
  412ed3:	cc                   	int3   
  412ed4:	cc                   	int3   
  412ed5:	cc                   	int3   
  412ed6:	cc                   	int3   
  412ed7:	cc                   	int3   
  412ed8:	cc                   	int3   
  412ed9:	cc                   	int3   
  412eda:	cc                   	int3   
  412edb:	cc                   	int3   
  412edc:	cc                   	int3   
  412edd:	cc                   	int3   
  412ede:	cc                   	int3   
  412edf:	cc                   	int3   
  412ee0:	cc                   	int3   
  412ee1:	cc                   	int3   
  412ee2:	cc                   	int3   
  412ee3:	cc                   	int3   
  412ee4:	cc                   	int3   
  412ee5:	cc                   	int3   
  412ee6:	cc                   	int3   
  412ee7:	cc                   	int3   
  412ee8:	cc                   	int3   
  412ee9:	cc                   	int3   
  412eea:	cc                   	int3   
  412eeb:	cc                   	int3   
  412eec:	cc                   	int3   
  412eed:	cc                   	int3   
  412eee:	cc                   	int3   
  412eef:	cc                   	int3   
  412ef0:	cc                   	int3   
  412ef1:	cc                   	int3   
  412ef2:	cc                   	int3   
  412ef3:	cc                   	int3   
  412ef4:	cc                   	int3   
  412ef5:	cc                   	int3   
  412ef6:	cc                   	int3   
  412ef7:	cc                   	int3   
  412ef8:	cc                   	int3   
  412ef9:	cc                   	int3   
  412efa:	cc                   	int3   
  412efb:	cc                   	int3   
  412efc:	cc                   	int3   
  412efd:	cc                   	int3   
  412efe:	cc                   	int3   
  412eff:	cc                   	int3   
  412f00:	cc                   	int3   
  412f01:	cc                   	int3   
  412f02:	cc                   	int3   
  412f03:	cc                   	int3   
  412f04:	cc                   	int3   
  412f05:	cc                   	int3   
  412f06:	cc                   	int3   
  412f07:	cc                   	int3   
  412f08:	cc                   	int3   
  412f09:	cc                   	int3   
  412f0a:	cc                   	int3   
  412f0b:	cc                   	int3   
  412f0c:	cc                   	int3   
  412f0d:	cc                   	int3   
  412f0e:	cc                   	int3   
  412f0f:	cc                   	int3   
  412f10:	cc                   	int3   
  412f11:	cc                   	int3   
  412f12:	cc                   	int3   
  412f13:	cc                   	int3   
  412f14:	cc                   	int3   
  412f15:	cc                   	int3   
  412f16:	cc                   	int3   
  412f17:	cc                   	int3   
  412f18:	cc                   	int3   
  412f19:	cc                   	int3   
  412f1a:	cc                   	int3   
  412f1b:	cc                   	int3   
  412f1c:	cc                   	int3   
  412f1d:	cc                   	int3   
  412f1e:	cc                   	int3   
  412f1f:	cc                   	int3   
  412f20:	cc                   	int3   
  412f21:	cc                   	int3   
  412f22:	cc                   	int3   
  412f23:	cc                   	int3   
  412f24:	cc                   	int3   
  412f25:	cc                   	int3   
  412f26:	cc                   	int3   
  412f27:	cc                   	int3   
  412f28:	cc                   	int3   
  412f29:	cc                   	int3   
  412f2a:	cc                   	int3   
  412f2b:	cc                   	int3   
  412f2c:	cc                   	int3   
  412f2d:	cc                   	int3   
  412f2e:	cc                   	int3   
  412f2f:	cc                   	int3   
  412f30:	cc                   	int3   
  412f31:	cc                   	int3   
  412f32:	cc                   	int3   
  412f33:	cc                   	int3   
  412f34:	cc                   	int3   
  412f35:	cc                   	int3   
  412f36:	cc                   	int3   
  412f37:	cc                   	int3   
  412f38:	cc                   	int3   
  412f39:	cc                   	int3   
  412f3a:	cc                   	int3   
  412f3b:	cc                   	int3   
  412f3c:	cc                   	int3   
  412f3d:	cc                   	int3   
  412f3e:	cc                   	int3   
  412f3f:	cc                   	int3   
  412f40:	cc                   	int3   
  412f41:	cc                   	int3   
  412f42:	cc                   	int3   
  412f43:	cc                   	int3   
  412f44:	cc                   	int3   
  412f45:	cc                   	int3   
  412f46:	cc                   	int3   
  412f47:	cc                   	int3   
  412f48:	cc                   	int3   
  412f49:	cc                   	int3   
  412f4a:	cc                   	int3   
  412f4b:	cc                   	int3   
  412f4c:	cc                   	int3   
  412f4d:	cc                   	int3   
  412f4e:	cc                   	int3   
  412f4f:	cc                   	int3   
  412f50:	cc                   	int3   
  412f51:	cc                   	int3   
  412f52:	cc                   	int3   
  412f53:	cc                   	int3   
  412f54:	cc                   	int3   
  412f55:	cc                   	int3   
  412f56:	cc                   	int3   
  412f57:	cc                   	int3   
  412f58:	cc                   	int3   
  412f59:	cc                   	int3   
  412f5a:	cc                   	int3   
  412f5b:	cc                   	int3   
  412f5c:	cc                   	int3   
  412f5d:	cc                   	int3   
  412f5e:	cc                   	int3   
  412f5f:	cc                   	int3   
  412f60:	cc                   	int3   
  412f61:	cc                   	int3   
  412f62:	cc                   	int3   
  412f63:	cc                   	int3   
  412f64:	cc                   	int3   
  412f65:	cc                   	int3   
  412f66:	cc                   	int3   
  412f67:	cc                   	int3   
  412f68:	cc                   	int3   
  412f69:	cc                   	int3   
  412f6a:	cc                   	int3   
  412f6b:	cc                   	int3   
  412f6c:	cc                   	int3   
  412f6d:	cc                   	int3   
  412f6e:	cc                   	int3   
  412f6f:	cc                   	int3   
  412f70:	cc                   	int3   
  412f71:	cc                   	int3   
  412f72:	cc                   	int3   
  412f73:	cc                   	int3   
  412f74:	cc                   	int3   
  412f75:	cc                   	int3   
  412f76:	cc                   	int3   
  412f77:	cc                   	int3   
  412f78:	cc                   	int3   
  412f79:	cc                   	int3   
  412f7a:	cc                   	int3   
  412f7b:	cc                   	int3   
  412f7c:	cc                   	int3   
  412f7d:	cc                   	int3   
  412f7e:	cc                   	int3   
  412f7f:	cc                   	int3   
  412f80:	cc                   	int3   
  412f81:	cc                   	int3   
  412f82:	cc                   	int3   
  412f83:	cc                   	int3   
  412f84:	cc                   	int3   
  412f85:	cc                   	int3   
  412f86:	cc                   	int3   
  412f87:	cc                   	int3   
  412f88:	cc                   	int3   
  412f89:	cc                   	int3   
  412f8a:	cc                   	int3   
  412f8b:	cc                   	int3   
  412f8c:	cc                   	int3   
  412f8d:	cc                   	int3   
  412f8e:	cc                   	int3   
  412f8f:	cc                   	int3   
  412f90:	cc                   	int3   
  412f91:	cc                   	int3   
  412f92:	cc                   	int3   
  412f93:	cc                   	int3   
  412f94:	cc                   	int3   
  412f95:	cc                   	int3   
  412f96:	cc                   	int3   
  412f97:	cc                   	int3   
  412f98:	cc                   	int3   
  412f99:	cc                   	int3   
  412f9a:	cc                   	int3   
  412f9b:	cc                   	int3   
  412f9c:	cc                   	int3   
  412f9d:	cc                   	int3   
  412f9e:	cc                   	int3   
  412f9f:	cc                   	int3   
  412fa0:	cc                   	int3   
  412fa1:	cc                   	int3   
  412fa2:	cc                   	int3   
  412fa3:	cc                   	int3   
  412fa4:	cc                   	int3   
  412fa5:	cc                   	int3   
  412fa6:	cc                   	int3   
  412fa7:	cc                   	int3   
  412fa8:	cc                   	int3   
  412fa9:	cc                   	int3   
  412faa:	cc                   	int3   
  412fab:	cc                   	int3   
  412fac:	cc                   	int3   
  412fad:	cc                   	int3   
  412fae:	cc                   	int3   
  412faf:	cc                   	int3   
  412fb0:	cc                   	int3   
  412fb1:	cc                   	int3   
  412fb2:	cc                   	int3   
  412fb3:	cc                   	int3   
  412fb4:	cc                   	int3   
  412fb5:	cc                   	int3   
  412fb6:	cc                   	int3   
  412fb7:	cc                   	int3   
  412fb8:	cc                   	int3   
  412fb9:	cc                   	int3   
  412fba:	cc                   	int3   
  412fbb:	cc                   	int3   
  412fbc:	cc                   	int3   
  412fbd:	cc                   	int3   
  412fbe:	cc                   	int3   
  412fbf:	cc                   	int3   
  412fc0:	cc                   	int3   
  412fc1:	cc                   	int3   
  412fc2:	cc                   	int3   
  412fc3:	cc                   	int3   
  412fc4:	cc                   	int3   
  412fc5:	cc                   	int3   
  412fc6:	cc                   	int3   
  412fc7:	cc                   	int3   
  412fc8:	cc                   	int3   
  412fc9:	cc                   	int3   
  412fca:	cc                   	int3   
  412fcb:	cc                   	int3   
  412fcc:	cc                   	int3   
  412fcd:	cc                   	int3   
  412fce:	cc                   	int3   
  412fcf:	cc                   	int3   
  412fd0:	cc                   	int3   
  412fd1:	cc                   	int3   
  412fd2:	cc                   	int3   
  412fd3:	cc                   	int3   
  412fd4:	cc                   	int3   
  412fd5:	cc                   	int3   
  412fd6:	cc                   	int3   
  412fd7:	cc                   	int3   
  412fd8:	cc                   	int3   
  412fd9:	cc                   	int3   
  412fda:	cc                   	int3   
  412fdb:	cc                   	int3   
  412fdc:	cc                   	int3   
  412fdd:	cc                   	int3   
  412fde:	cc                   	int3   
  412fdf:	cc                   	int3   
  412fe0:	cc                   	int3   
  412fe1:	cc                   	int3   
  412fe2:	cc                   	int3   
  412fe3:	cc                   	int3   
  412fe4:	cc                   	int3   
  412fe5:	cc                   	int3   
  412fe6:	cc                   	int3   
  412fe7:	cc                   	int3   
  412fe8:	cc                   	int3   
  412fe9:	cc                   	int3   
  412fea:	cc                   	int3   
  412feb:	cc                   	int3   
  412fec:	cc                   	int3   
  412fed:	cc                   	int3   
  412fee:	cc                   	int3   
  412fef:	cc                   	int3   
  412ff0:	cc                   	int3   
  412ff1:	cc                   	int3   
  412ff2:	cc                   	int3   
  412ff3:	cc                   	int3   
  412ff4:	cc                   	int3   
  412ff5:	cc                   	int3   
  412ff6:	cc                   	int3   
  412ff7:	cc                   	int3   
  412ff8:	cc                   	int3   
  412ff9:	cc                   	int3   
  412ffa:	cc                   	int3   
  412ffb:	cc                   	int3   
  412ffc:	cc                   	int3   
  412ffd:	cc                   	int3   
  412ffe:	cc                   	int3   
  412fff:	cc                   	int3   
  413000:	cc                   	int3   
  413001:	cc                   	int3   
  413002:	cc                   	int3   
  413003:	cc                   	int3   
  413004:	cc                   	int3   
  413005:	cc                   	int3   
  413006:	cc                   	int3   
  413007:	cc                   	int3   
  413008:	cc                   	int3   
  413009:	cc                   	int3   
  41300a:	cc                   	int3   
  41300b:	cc                   	int3   
  41300c:	cc                   	int3   
  41300d:	cc                   	int3   
  41300e:	cc                   	int3   
  41300f:	cc                   	int3   
  413010:	cc                   	int3   
  413011:	cc                   	int3   
  413012:	cc                   	int3   
  413013:	cc                   	int3   
  413014:	cc                   	int3   
  413015:	cc                   	int3   
  413016:	cc                   	int3   
  413017:	cc                   	int3   
  413018:	cc                   	int3   
  413019:	cc                   	int3   
  41301a:	cc                   	int3   
  41301b:	cc                   	int3   
  41301c:	cc                   	int3   
  41301d:	cc                   	int3   
  41301e:	cc                   	int3   
  41301f:	cc                   	int3   
  413020:	cc                   	int3   
  413021:	cc                   	int3   
  413022:	cc                   	int3   
  413023:	cc                   	int3   
  413024:	cc                   	int3   
  413025:	cc                   	int3   
  413026:	cc                   	int3   
  413027:	cc                   	int3   
  413028:	cc                   	int3   
  413029:	cc                   	int3   
  41302a:	cc                   	int3   
  41302b:	cc                   	int3   
  41302c:	cc                   	int3   
  41302d:	cc                   	int3   
  41302e:	cc                   	int3   
  41302f:	cc                   	int3   
  413030:	cc                   	int3   
  413031:	cc                   	int3   
  413032:	cc                   	int3   
  413033:	cc                   	int3   
  413034:	cc                   	int3   
  413035:	cc                   	int3   
  413036:	cc                   	int3   
  413037:	cc                   	int3   
  413038:	cc                   	int3   
  413039:	cc                   	int3   
  41303a:	cc                   	int3   
  41303b:	cc                   	int3   
  41303c:	cc                   	int3   
  41303d:	cc                   	int3   
  41303e:	cc                   	int3   
  41303f:	cc                   	int3   
  413040:	cc                   	int3   
  413041:	cc                   	int3   
  413042:	cc                   	int3   
  413043:	cc                   	int3   
  413044:	cc                   	int3   
  413045:	cc                   	int3   
  413046:	cc                   	int3   
  413047:	cc                   	int3   
  413048:	cc                   	int3   
  413049:	cc                   	int3   
  41304a:	cc                   	int3   
  41304b:	cc                   	int3   
  41304c:	cc                   	int3   
  41304d:	cc                   	int3   
  41304e:	cc                   	int3   
  41304f:	cc                   	int3   
  413050:	cc                   	int3   
  413051:	cc                   	int3   
  413052:	cc                   	int3   
  413053:	cc                   	int3   
  413054:	cc                   	int3   
  413055:	cc                   	int3   
  413056:	cc                   	int3   
  413057:	cc                   	int3   
  413058:	cc                   	int3   
  413059:	cc                   	int3   
  41305a:	cc                   	int3   
  41305b:	cc                   	int3   
  41305c:	cc                   	int3   
  41305d:	cc                   	int3   
  41305e:	cc                   	int3   
  41305f:	cc                   	int3   
  413060:	cc                   	int3   
  413061:	cc                   	int3   
  413062:	cc                   	int3   
  413063:	cc                   	int3   
  413064:	cc                   	int3   
  413065:	cc                   	int3   
  413066:	cc                   	int3   
  413067:	cc                   	int3   
  413068:	cc                   	int3   
  413069:	cc                   	int3   
  41306a:	cc                   	int3   
  41306b:	cc                   	int3   
  41306c:	cc                   	int3   
  41306d:	cc                   	int3   
  41306e:	cc                   	int3   
  41306f:	cc                   	int3   
  413070:	cc                   	int3   
  413071:	cc                   	int3   
  413072:	cc                   	int3   
  413073:	cc                   	int3   
  413074:	cc                   	int3   
  413075:	cc                   	int3   
  413076:	cc                   	int3   
  413077:	cc                   	int3   
  413078:	cc                   	int3   
  413079:	cc                   	int3   
  41307a:	cc                   	int3   
  41307b:	cc                   	int3   
  41307c:	cc                   	int3   
  41307d:	cc                   	int3   
  41307e:	cc                   	int3   
  41307f:	cc                   	int3   
  413080:	cc                   	int3   
  413081:	cc                   	int3   
  413082:	cc                   	int3   
  413083:	cc                   	int3   
  413084:	cc                   	int3   
  413085:	cc                   	int3   
  413086:	cc                   	int3   
  413087:	cc                   	int3   
  413088:	cc                   	int3   
  413089:	cc                   	int3   
  41308a:	cc                   	int3   
  41308b:	cc                   	int3   
  41308c:	cc                   	int3   
  41308d:	cc                   	int3   
  41308e:	cc                   	int3   
  41308f:	cc                   	int3   
  413090:	cc                   	int3   
  413091:	cc                   	int3   
  413092:	cc                   	int3   
  413093:	cc                   	int3   
  413094:	cc                   	int3   
  413095:	cc                   	int3   
  413096:	cc                   	int3   
  413097:	cc                   	int3   
  413098:	cc                   	int3   
  413099:	cc                   	int3   
  41309a:	cc                   	int3   
  41309b:	cc                   	int3   
  41309c:	cc                   	int3   
  41309d:	cc                   	int3   
  41309e:	cc                   	int3   
  41309f:	cc                   	int3   
  4130a0:	cc                   	int3   
  4130a1:	cc                   	int3   
  4130a2:	cc                   	int3   
  4130a3:	cc                   	int3   
  4130a4:	cc                   	int3   
  4130a5:	cc                   	int3   
  4130a6:	cc                   	int3   
  4130a7:	cc                   	int3   
  4130a8:	cc                   	int3   
  4130a9:	cc                   	int3   
  4130aa:	cc                   	int3   
  4130ab:	cc                   	int3   
  4130ac:	cc                   	int3   
  4130ad:	cc                   	int3   
  4130ae:	cc                   	int3   
  4130af:	cc                   	int3   
  4130b0:	cc                   	int3   
  4130b1:	cc                   	int3   
  4130b2:	cc                   	int3   
  4130b3:	cc                   	int3   
  4130b4:	cc                   	int3   
  4130b5:	cc                   	int3   
  4130b6:	cc                   	int3   
  4130b7:	cc                   	int3   
  4130b8:	cc                   	int3   
  4130b9:	cc                   	int3   
  4130ba:	cc                   	int3   
  4130bb:	cc                   	int3   
  4130bc:	cc                   	int3   
  4130bd:	cc                   	int3   
  4130be:	cc                   	int3   
  4130bf:	cc                   	int3   
  4130c0:	cc                   	int3   
  4130c1:	cc                   	int3   
  4130c2:	cc                   	int3   
  4130c3:	cc                   	int3   
  4130c4:	cc                   	int3   
  4130c5:	cc                   	int3   
  4130c6:	cc                   	int3   
  4130c7:	cc                   	int3   
  4130c8:	cc                   	int3   
  4130c9:	cc                   	int3   
  4130ca:	cc                   	int3   
  4130cb:	cc                   	int3   
  4130cc:	cc                   	int3   
  4130cd:	cc                   	int3   
  4130ce:	cc                   	int3   
  4130cf:	cc                   	int3   
  4130d0:	cc                   	int3   
  4130d1:	cc                   	int3   
  4130d2:	cc                   	int3   
  4130d3:	cc                   	int3   
  4130d4:	cc                   	int3   
  4130d5:	cc                   	int3   
  4130d6:	cc                   	int3   
  4130d7:	cc                   	int3   
  4130d8:	cc                   	int3   
  4130d9:	cc                   	int3   
  4130da:	cc                   	int3   
  4130db:	cc                   	int3   
  4130dc:	cc                   	int3   
  4130dd:	cc                   	int3   
  4130de:	cc                   	int3   
  4130df:	cc                   	int3   
  4130e0:	cc                   	int3   
  4130e1:	cc                   	int3   
  4130e2:	cc                   	int3   
  4130e3:	cc                   	int3   
  4130e4:	cc                   	int3   
  4130e5:	cc                   	int3   
  4130e6:	cc                   	int3   
  4130e7:	cc                   	int3   
  4130e8:	cc                   	int3   
  4130e9:	cc                   	int3   
  4130ea:	cc                   	int3   
  4130eb:	cc                   	int3   
  4130ec:	cc                   	int3   
  4130ed:	cc                   	int3   
  4130ee:	cc                   	int3   
  4130ef:	cc                   	int3   
  4130f0:	cc                   	int3   
  4130f1:	cc                   	int3   
  4130f2:	cc                   	int3   
  4130f3:	cc                   	int3   
  4130f4:	cc                   	int3   
  4130f5:	cc                   	int3   
  4130f6:	cc                   	int3   
  4130f7:	cc                   	int3   
  4130f8:	cc                   	int3   
  4130f9:	cc                   	int3   
  4130fa:	cc                   	int3   
  4130fb:	cc                   	int3   
  4130fc:	cc                   	int3   
  4130fd:	cc                   	int3   
  4130fe:	cc                   	int3   
  4130ff:	cc                   	int3   
  413100:	cc                   	int3   
  413101:	cc                   	int3   
  413102:	cc                   	int3   
  413103:	cc                   	int3   
  413104:	cc                   	int3   
  413105:	cc                   	int3   
  413106:	cc                   	int3   
  413107:	cc                   	int3   
  413108:	cc                   	int3   
  413109:	cc                   	int3   
  41310a:	cc                   	int3   
  41310b:	cc                   	int3   
  41310c:	cc                   	int3   
  41310d:	cc                   	int3   
  41310e:	cc                   	int3   
  41310f:	cc                   	int3   
  413110:	cc                   	int3   
  413111:	cc                   	int3   
  413112:	cc                   	int3   
  413113:	cc                   	int3   
  413114:	cc                   	int3   
  413115:	cc                   	int3   
  413116:	cc                   	int3   
  413117:	cc                   	int3   
  413118:	cc                   	int3   
  413119:	cc                   	int3   
  41311a:	cc                   	int3   
  41311b:	cc                   	int3   
  41311c:	cc                   	int3   
  41311d:	cc                   	int3   
  41311e:	cc                   	int3   
  41311f:	cc                   	int3   
  413120:	cc                   	int3   
  413121:	cc                   	int3   
  413122:	cc                   	int3   
  413123:	cc                   	int3   
  413124:	cc                   	int3   
  413125:	cc                   	int3   
  413126:	cc                   	int3   
  413127:	cc                   	int3   
  413128:	cc                   	int3   
  413129:	cc                   	int3   
  41312a:	cc                   	int3   
  41312b:	cc                   	int3   
  41312c:	cc                   	int3   
  41312d:	cc                   	int3   
  41312e:	cc                   	int3   
  41312f:	cc                   	int3   
  413130:	cc                   	int3   
  413131:	cc                   	int3   
  413132:	cc                   	int3   
  413133:	cc                   	int3   
  413134:	cc                   	int3   
  413135:	cc                   	int3   
  413136:	cc                   	int3   
  413137:	cc                   	int3   
  413138:	cc                   	int3   
  413139:	cc                   	int3   
  41313a:	cc                   	int3   
  41313b:	cc                   	int3   
  41313c:	cc                   	int3   
  41313d:	cc                   	int3   
  41313e:	cc                   	int3   
  41313f:	cc                   	int3   
  413140:	cc                   	int3   
  413141:	cc                   	int3   
  413142:	cc                   	int3   
  413143:	cc                   	int3   
  413144:	cc                   	int3   
  413145:	cc                   	int3   
  413146:	cc                   	int3   
  413147:	cc                   	int3   
  413148:	cc                   	int3   
  413149:	cc                   	int3   
  41314a:	cc                   	int3   
  41314b:	cc                   	int3   
  41314c:	cc                   	int3   
  41314d:	cc                   	int3   
  41314e:	cc                   	int3   
  41314f:	cc                   	int3   
  413150:	cc                   	int3   
  413151:	cc                   	int3   
  413152:	cc                   	int3   
  413153:	cc                   	int3   
  413154:	cc                   	int3   
  413155:	cc                   	int3   
  413156:	cc                   	int3   
  413157:	cc                   	int3   
  413158:	cc                   	int3   
  413159:	cc                   	int3   
  41315a:	cc                   	int3   
  41315b:	cc                   	int3   
  41315c:	cc                   	int3   
  41315d:	cc                   	int3   
  41315e:	cc                   	int3   
  41315f:	cc                   	int3   
  413160:	cc                   	int3   
  413161:	cc                   	int3   
  413162:	cc                   	int3   
  413163:	cc                   	int3   
  413164:	cc                   	int3   
  413165:	cc                   	int3   
  413166:	cc                   	int3   
  413167:	cc                   	int3   
  413168:	cc                   	int3   
  413169:	cc                   	int3   
  41316a:	cc                   	int3   
  41316b:	cc                   	int3   
  41316c:	cc                   	int3   
  41316d:	cc                   	int3   
  41316e:	cc                   	int3   
  41316f:	cc                   	int3   
  413170:	cc                   	int3   
  413171:	cc                   	int3   
  413172:	cc                   	int3   
  413173:	cc                   	int3   
  413174:	cc                   	int3   
  413175:	cc                   	int3   
  413176:	cc                   	int3   
  413177:	cc                   	int3   
  413178:	cc                   	int3   
  413179:	cc                   	int3   
  41317a:	cc                   	int3   
  41317b:	cc                   	int3   
  41317c:	cc                   	int3   
  41317d:	cc                   	int3   
  41317e:	cc                   	int3   
  41317f:	cc                   	int3   
  413180:	cc                   	int3   
  413181:	cc                   	int3   
  413182:	cc                   	int3   
  413183:	cc                   	int3   
  413184:	cc                   	int3   
  413185:	cc                   	int3   
  413186:	cc                   	int3   
  413187:	cc                   	int3   
  413188:	cc                   	int3   
  413189:	cc                   	int3   
  41318a:	cc                   	int3   
  41318b:	cc                   	int3   
  41318c:	cc                   	int3   
  41318d:	cc                   	int3   
  41318e:	cc                   	int3   
  41318f:	cc                   	int3   
  413190:	cc                   	int3   
  413191:	cc                   	int3   
  413192:	cc                   	int3   
  413193:	cc                   	int3   
  413194:	cc                   	int3   
  413195:	cc                   	int3   
  413196:	cc                   	int3   
  413197:	cc                   	int3   
  413198:	cc                   	int3   
  413199:	cc                   	int3   
  41319a:	cc                   	int3   
  41319b:	cc                   	int3   
  41319c:	cc                   	int3   
  41319d:	cc                   	int3   
  41319e:	cc                   	int3   
  41319f:	cc                   	int3   
  4131a0:	cc                   	int3   
  4131a1:	cc                   	int3   
  4131a2:	cc                   	int3   
  4131a3:	cc                   	int3   
  4131a4:	cc                   	int3   
  4131a5:	cc                   	int3   
  4131a6:	cc                   	int3   
  4131a7:	cc                   	int3   
  4131a8:	cc                   	int3   
  4131a9:	cc                   	int3   
  4131aa:	cc                   	int3   
  4131ab:	cc                   	int3   
  4131ac:	cc                   	int3   
  4131ad:	cc                   	int3   
  4131ae:	cc                   	int3   
  4131af:	cc                   	int3   
  4131b0:	cc                   	int3   
  4131b1:	cc                   	int3   
  4131b2:	cc                   	int3   
  4131b3:	cc                   	int3   
  4131b4:	cc                   	int3   
  4131b5:	cc                   	int3   
  4131b6:	cc                   	int3   
  4131b7:	cc                   	int3   
  4131b8:	cc                   	int3   
  4131b9:	cc                   	int3   
  4131ba:	cc                   	int3   
  4131bb:	cc                   	int3   
  4131bc:	cc                   	int3   
  4131bd:	cc                   	int3   
  4131be:	cc                   	int3   
  4131bf:	cc                   	int3   
  4131c0:	cc                   	int3   
  4131c1:	cc                   	int3   
  4131c2:	cc                   	int3   
  4131c3:	cc                   	int3   
  4131c4:	cc                   	int3   
  4131c5:	cc                   	int3   
  4131c6:	cc                   	int3   
  4131c7:	cc                   	int3   
  4131c8:	cc                   	int3   
  4131c9:	cc                   	int3   
  4131ca:	cc                   	int3   
  4131cb:	cc                   	int3   
  4131cc:	cc                   	int3   
  4131cd:	cc                   	int3   
  4131ce:	cc                   	int3   
  4131cf:	cc                   	int3   
  4131d0:	cc                   	int3   
  4131d1:	cc                   	int3   
  4131d2:	cc                   	int3   
  4131d3:	cc                   	int3   
  4131d4:	cc                   	int3   
  4131d5:	cc                   	int3   
  4131d6:	cc                   	int3   
  4131d7:	cc                   	int3   
  4131d8:	cc                   	int3   
  4131d9:	cc                   	int3   
  4131da:	cc                   	int3   
  4131db:	cc                   	int3   
  4131dc:	cc                   	int3   
  4131dd:	cc                   	int3   
  4131de:	cc                   	int3   
  4131df:	cc                   	int3   
  4131e0:	cc                   	int3   
  4131e1:	cc                   	int3   
  4131e2:	cc                   	int3   
  4131e3:	cc                   	int3   
  4131e4:	cc                   	int3   
  4131e5:	cc                   	int3   
  4131e6:	cc                   	int3   
  4131e7:	cc                   	int3   
  4131e8:	cc                   	int3   
  4131e9:	cc                   	int3   
  4131ea:	cc                   	int3   
  4131eb:	cc                   	int3   
  4131ec:	cc                   	int3   
  4131ed:	cc                   	int3   
  4131ee:	cc                   	int3   
  4131ef:	cc                   	int3   
  4131f0:	cc                   	int3   
  4131f1:	cc                   	int3   
  4131f2:	cc                   	int3   
  4131f3:	cc                   	int3   
  4131f4:	cc                   	int3   
  4131f5:	cc                   	int3   
  4131f6:	cc                   	int3   
  4131f7:	cc                   	int3   
  4131f8:	cc                   	int3   
  4131f9:	cc                   	int3   
  4131fa:	cc                   	int3   
  4131fb:	cc                   	int3   
  4131fc:	cc                   	int3   
  4131fd:	cc                   	int3   
  4131fe:	cc                   	int3   
  4131ff:	cc                   	int3   
  413200:	cc                   	int3   
  413201:	cc                   	int3   
  413202:	cc                   	int3   
  413203:	cc                   	int3   
  413204:	cc                   	int3   
  413205:	cc                   	int3   
  413206:	cc                   	int3   
  413207:	cc                   	int3   
  413208:	cc                   	int3   
  413209:	cc                   	int3   
  41320a:	cc                   	int3   
  41320b:	cc                   	int3   
  41320c:	cc                   	int3   
  41320d:	cc                   	int3   
  41320e:	cc                   	int3   
  41320f:	cc                   	int3   
  413210:	cc                   	int3   
  413211:	cc                   	int3   
  413212:	cc                   	int3   
  413213:	cc                   	int3   
  413214:	cc                   	int3   
  413215:	cc                   	int3   
  413216:	cc                   	int3   
  413217:	cc                   	int3   
  413218:	cc                   	int3   
  413219:	cc                   	int3   
  41321a:	cc                   	int3   
  41321b:	cc                   	int3   
  41321c:	cc                   	int3   
  41321d:	cc                   	int3   
  41321e:	cc                   	int3   
  41321f:	cc                   	int3   
  413220:	cc                   	int3   
  413221:	cc                   	int3   
  413222:	cc                   	int3   
  413223:	cc                   	int3   
  413224:	cc                   	int3   
  413225:	cc                   	int3   
  413226:	cc                   	int3   
  413227:	cc                   	int3   
  413228:	cc                   	int3   
  413229:	cc                   	int3   
  41322a:	cc                   	int3   
  41322b:	cc                   	int3   
  41322c:	cc                   	int3   
  41322d:	cc                   	int3   
  41322e:	cc                   	int3   
  41322f:	cc                   	int3   
  413230:	cc                   	int3   
  413231:	cc                   	int3   
  413232:	cc                   	int3   
  413233:	cc                   	int3   
  413234:	cc                   	int3   
  413235:	cc                   	int3   
  413236:	cc                   	int3   
  413237:	cc                   	int3   
  413238:	cc                   	int3   
  413239:	cc                   	int3   
  41323a:	cc                   	int3   
  41323b:	cc                   	int3   
  41323c:	cc                   	int3   
  41323d:	cc                   	int3   
  41323e:	cc                   	int3   
  41323f:	cc                   	int3   
  413240:	cc                   	int3   
  413241:	cc                   	int3   
  413242:	cc                   	int3   
  413243:	cc                   	int3   
  413244:	cc                   	int3   
  413245:	cc                   	int3   
  413246:	cc                   	int3   
  413247:	cc                   	int3   
  413248:	cc                   	int3   
  413249:	cc                   	int3   
  41324a:	cc                   	int3   
  41324b:	cc                   	int3   
  41324c:	cc                   	int3   
  41324d:	cc                   	int3   
  41324e:	cc                   	int3   
  41324f:	cc                   	int3   
  413250:	cc                   	int3   
  413251:	cc                   	int3   
  413252:	cc                   	int3   
  413253:	cc                   	int3   
  413254:	cc                   	int3   
  413255:	cc                   	int3   
  413256:	cc                   	int3   
  413257:	cc                   	int3   
  413258:	cc                   	int3   
  413259:	cc                   	int3   
  41325a:	cc                   	int3   
  41325b:	cc                   	int3   
  41325c:	cc                   	int3   
  41325d:	cc                   	int3   
  41325e:	cc                   	int3   
  41325f:	cc                   	int3   
  413260:	cc                   	int3   
  413261:	cc                   	int3   
  413262:	cc                   	int3   
  413263:	cc                   	int3   
  413264:	cc                   	int3   
  413265:	cc                   	int3   
  413266:	cc                   	int3   
  413267:	cc                   	int3   
  413268:	cc                   	int3   
  413269:	cc                   	int3   
  41326a:	cc                   	int3   
  41326b:	cc                   	int3   
  41326c:	cc                   	int3   
  41326d:	cc                   	int3   
  41326e:	cc                   	int3   
  41326f:	cc                   	int3   
  413270:	cc                   	int3   
  413271:	cc                   	int3   
  413272:	cc                   	int3   
  413273:	cc                   	int3   
  413274:	cc                   	int3   
  413275:	cc                   	int3   
  413276:	cc                   	int3   
  413277:	cc                   	int3   
  413278:	cc                   	int3   
  413279:	cc                   	int3   
  41327a:	cc                   	int3   
  41327b:	cc                   	int3   
  41327c:	cc                   	int3   
  41327d:	cc                   	int3   
  41327e:	cc                   	int3   
  41327f:	cc                   	int3   
  413280:	cc                   	int3   
  413281:	cc                   	int3   
  413282:	cc                   	int3   
  413283:	cc                   	int3   
  413284:	cc                   	int3   
  413285:	cc                   	int3   
  413286:	cc                   	int3   
  413287:	cc                   	int3   
  413288:	cc                   	int3   
  413289:	cc                   	int3   
  41328a:	cc                   	int3   
  41328b:	cc                   	int3   
  41328c:	cc                   	int3   
  41328d:	cc                   	int3   
  41328e:	cc                   	int3   
  41328f:	cc                   	int3   
  413290:	cc                   	int3   
  413291:	cc                   	int3   
  413292:	cc                   	int3   
  413293:	cc                   	int3   
  413294:	cc                   	int3   
  413295:	cc                   	int3   
  413296:	cc                   	int3   
  413297:	cc                   	int3   
  413298:	cc                   	int3   
  413299:	cc                   	int3   
  41329a:	cc                   	int3   
  41329b:	cc                   	int3   
  41329c:	cc                   	int3   
  41329d:	cc                   	int3   
  41329e:	cc                   	int3   
  41329f:	cc                   	int3   
  4132a0:	cc                   	int3   
  4132a1:	cc                   	int3   
  4132a2:	cc                   	int3   
  4132a3:	cc                   	int3   
  4132a4:	cc                   	int3   
  4132a5:	cc                   	int3   
  4132a6:	cc                   	int3   
  4132a7:	cc                   	int3   
  4132a8:	cc                   	int3   
  4132a9:	cc                   	int3   
  4132aa:	cc                   	int3   
  4132ab:	cc                   	int3   
  4132ac:	cc                   	int3   
  4132ad:	cc                   	int3   
  4132ae:	cc                   	int3   
  4132af:	cc                   	int3   
  4132b0:	cc                   	int3   
  4132b1:	cc                   	int3   
  4132b2:	cc                   	int3   
  4132b3:	cc                   	int3   
  4132b4:	cc                   	int3   
  4132b5:	cc                   	int3   
  4132b6:	cc                   	int3   
  4132b7:	cc                   	int3   
  4132b8:	cc                   	int3   
  4132b9:	cc                   	int3   
  4132ba:	cc                   	int3   
  4132bb:	cc                   	int3   
  4132bc:	cc                   	int3   
  4132bd:	cc                   	int3   
  4132be:	cc                   	int3   
  4132bf:	cc                   	int3   
  4132c0:	cc                   	int3   
  4132c1:	cc                   	int3   
  4132c2:	cc                   	int3   
  4132c3:	cc                   	int3   
  4132c4:	cc                   	int3   
  4132c5:	cc                   	int3   
  4132c6:	cc                   	int3   
  4132c7:	cc                   	int3   
  4132c8:	cc                   	int3   
  4132c9:	cc                   	int3   
  4132ca:	cc                   	int3   
  4132cb:	cc                   	int3   
  4132cc:	cc                   	int3   
  4132cd:	cc                   	int3   
  4132ce:	cc                   	int3   
  4132cf:	cc                   	int3   
  4132d0:	cc                   	int3   
  4132d1:	cc                   	int3   
  4132d2:	cc                   	int3   
  4132d3:	cc                   	int3   
  4132d4:	cc                   	int3   
  4132d5:	cc                   	int3   
  4132d6:	cc                   	int3   
  4132d7:	cc                   	int3   
  4132d8:	cc                   	int3   
  4132d9:	cc                   	int3   
  4132da:	cc                   	int3   
  4132db:	cc                   	int3   
  4132dc:	cc                   	int3   
  4132dd:	cc                   	int3   
  4132de:	cc                   	int3   
  4132df:	cc                   	int3   
  4132e0:	cc                   	int3   
  4132e1:	cc                   	int3   
  4132e2:	cc                   	int3   
  4132e3:	cc                   	int3   
  4132e4:	cc                   	int3   
  4132e5:	cc                   	int3   
  4132e6:	cc                   	int3   
  4132e7:	cc                   	int3   
  4132e8:	cc                   	int3   
  4132e9:	cc                   	int3   
  4132ea:	cc                   	int3   
  4132eb:	cc                   	int3   
  4132ec:	cc                   	int3   
  4132ed:	cc                   	int3   
  4132ee:	cc                   	int3   
  4132ef:	cc                   	int3   
  4132f0:	cc                   	int3   
  4132f1:	cc                   	int3   
  4132f2:	cc                   	int3   
  4132f3:	cc                   	int3   
  4132f4:	cc                   	int3   
  4132f5:	cc                   	int3   
  4132f6:	cc                   	int3   
  4132f7:	cc                   	int3   
  4132f8:	cc                   	int3   
  4132f9:	cc                   	int3   
  4132fa:	cc                   	int3   
  4132fb:	cc                   	int3   
  4132fc:	cc                   	int3   
  4132fd:	cc                   	int3   
  4132fe:	cc                   	int3   
  4132ff:	cc                   	int3   
  413300:	cc                   	int3   
  413301:	cc                   	int3   
  413302:	cc                   	int3   
  413303:	cc                   	int3   
  413304:	cc                   	int3   
  413305:	cc                   	int3   
  413306:	cc                   	int3   
  413307:	cc                   	int3   
  413308:	cc                   	int3   
  413309:	cc                   	int3   
  41330a:	cc                   	int3   
  41330b:	cc                   	int3   
  41330c:	cc                   	int3   
  41330d:	cc                   	int3   
  41330e:	cc                   	int3   
  41330f:	cc                   	int3   
  413310:	cc                   	int3   
  413311:	cc                   	int3   
  413312:	cc                   	int3   
  413313:	cc                   	int3   
  413314:	cc                   	int3   
  413315:	cc                   	int3   
  413316:	cc                   	int3   
  413317:	cc                   	int3   
  413318:	cc                   	int3   
  413319:	cc                   	int3   
  41331a:	cc                   	int3   
  41331b:	cc                   	int3   
  41331c:	cc                   	int3   
  41331d:	cc                   	int3   
  41331e:	cc                   	int3   
  41331f:	cc                   	int3   
  413320:	cc                   	int3   
  413321:	cc                   	int3   
  413322:	cc                   	int3   
  413323:	cc                   	int3   
  413324:	cc                   	int3   
  413325:	cc                   	int3   
  413326:	cc                   	int3   
  413327:	cc                   	int3   
  413328:	cc                   	int3   
  413329:	cc                   	int3   
  41332a:	cc                   	int3   
  41332b:	cc                   	int3   
  41332c:	cc                   	int3   
  41332d:	cc                   	int3   
  41332e:	cc                   	int3   
  41332f:	cc                   	int3   
  413330:	cc                   	int3   
  413331:	cc                   	int3   
  413332:	cc                   	int3   
  413333:	cc                   	int3   
  413334:	cc                   	int3   
  413335:	cc                   	int3   
  413336:	cc                   	int3   
  413337:	cc                   	int3   
  413338:	cc                   	int3   
  413339:	cc                   	int3   
  41333a:	cc                   	int3   
  41333b:	cc                   	int3   
  41333c:	cc                   	int3   
  41333d:	cc                   	int3   
  41333e:	cc                   	int3   
  41333f:	cc                   	int3   
  413340:	cc                   	int3   
  413341:	cc                   	int3   
  413342:	cc                   	int3   
  413343:	cc                   	int3   
  413344:	cc                   	int3   
  413345:	cc                   	int3   
  413346:	cc                   	int3   
  413347:	cc                   	int3   
  413348:	cc                   	int3   
  413349:	cc                   	int3   
  41334a:	cc                   	int3   
  41334b:	cc                   	int3   
  41334c:	cc                   	int3   
  41334d:	cc                   	int3   
  41334e:	cc                   	int3   
  41334f:	cc                   	int3   
  413350:	cc                   	int3   
  413351:	cc                   	int3   
  413352:	cc                   	int3   
  413353:	cc                   	int3   
  413354:	cc                   	int3   
  413355:	cc                   	int3   
  413356:	cc                   	int3   
  413357:	cc                   	int3   
  413358:	cc                   	int3   
  413359:	cc                   	int3   
  41335a:	cc                   	int3   
  41335b:	cc                   	int3   
  41335c:	cc                   	int3   
  41335d:	cc                   	int3   
  41335e:	cc                   	int3   
  41335f:	cc                   	int3   
  413360:	cc                   	int3   
  413361:	cc                   	int3   
  413362:	cc                   	int3   
  413363:	cc                   	int3   
  413364:	cc                   	int3   
  413365:	cc                   	int3   
  413366:	cc                   	int3   
  413367:	cc                   	int3   
  413368:	cc                   	int3   
  413369:	cc                   	int3   
  41336a:	cc                   	int3   
  41336b:	cc                   	int3   
  41336c:	cc                   	int3   
  41336d:	cc                   	int3   
  41336e:	cc                   	int3   
  41336f:	cc                   	int3   
  413370:	cc                   	int3   
  413371:	cc                   	int3   
  413372:	cc                   	int3   
  413373:	cc                   	int3   
  413374:	cc                   	int3   
  413375:	cc                   	int3   
  413376:	cc                   	int3   
  413377:	cc                   	int3   
  413378:	cc                   	int3   
  413379:	cc                   	int3   
  41337a:	cc                   	int3   
  41337b:	cc                   	int3   
  41337c:	cc                   	int3   
  41337d:	cc                   	int3   
  41337e:	cc                   	int3   
  41337f:	cc                   	int3   
  413380:	cc                   	int3   
  413381:	cc                   	int3   
  413382:	cc                   	int3   
  413383:	cc                   	int3   
  413384:	cc                   	int3   
  413385:	cc                   	int3   
  413386:	cc                   	int3   
  413387:	cc                   	int3   
  413388:	cc                   	int3   
  413389:	cc                   	int3   
  41338a:	cc                   	int3   
  41338b:	cc                   	int3   
  41338c:	cc                   	int3   
  41338d:	cc                   	int3   
  41338e:	cc                   	int3   
  41338f:	cc                   	int3   
  413390:	cc                   	int3   
  413391:	cc                   	int3   
  413392:	cc                   	int3   
  413393:	cc                   	int3   
  413394:	cc                   	int3   
  413395:	cc                   	int3   
  413396:	cc                   	int3   
  413397:	cc                   	int3   
  413398:	cc                   	int3   
  413399:	cc                   	int3   
  41339a:	cc                   	int3   
  41339b:	cc                   	int3   
  41339c:	cc                   	int3   
  41339d:	cc                   	int3   
  41339e:	cc                   	int3   
  41339f:	cc                   	int3   
  4133a0:	cc                   	int3   
  4133a1:	cc                   	int3   
  4133a2:	cc                   	int3   
  4133a3:	cc                   	int3   
  4133a4:	cc                   	int3   
  4133a5:	cc                   	int3   
  4133a6:	cc                   	int3   
  4133a7:	cc                   	int3   
  4133a8:	cc                   	int3   
  4133a9:	cc                   	int3   
  4133aa:	cc                   	int3   
  4133ab:	cc                   	int3   
  4133ac:	cc                   	int3   
  4133ad:	cc                   	int3   
  4133ae:	cc                   	int3   
  4133af:	cc                   	int3   
  4133b0:	cc                   	int3   
  4133b1:	cc                   	int3   
  4133b2:	cc                   	int3   
  4133b3:	cc                   	int3   
  4133b4:	cc                   	int3   
  4133b5:	cc                   	int3   
  4133b6:	cc                   	int3   
  4133b7:	cc                   	int3   
  4133b8:	cc                   	int3   
  4133b9:	cc                   	int3   
  4133ba:	cc                   	int3   
  4133bb:	cc                   	int3   
  4133bc:	cc                   	int3   
  4133bd:	cc                   	int3   
  4133be:	cc                   	int3   
  4133bf:	cc                   	int3   
  4133c0:	cc                   	int3   
  4133c1:	cc                   	int3   
  4133c2:	cc                   	int3   
  4133c3:	cc                   	int3   
  4133c4:	cc                   	int3   
  4133c5:	cc                   	int3   
  4133c6:	cc                   	int3   
  4133c7:	cc                   	int3   
  4133c8:	cc                   	int3   
  4133c9:	cc                   	int3   
  4133ca:	cc                   	int3   
  4133cb:	cc                   	int3   
  4133cc:	cc                   	int3   
  4133cd:	cc                   	int3   
  4133ce:	cc                   	int3   
  4133cf:	cc                   	int3   
  4133d0:	cc                   	int3   
  4133d1:	cc                   	int3   
  4133d2:	cc                   	int3   
  4133d3:	cc                   	int3   
  4133d4:	cc                   	int3   
  4133d5:	cc                   	int3   
  4133d6:	cc                   	int3   
  4133d7:	cc                   	int3   
  4133d8:	cc                   	int3   
  4133d9:	cc                   	int3   
  4133da:	cc                   	int3   
  4133db:	cc                   	int3   
  4133dc:	cc                   	int3   
  4133dd:	cc                   	int3   
  4133de:	cc                   	int3   
  4133df:	cc                   	int3   
  4133e0:	cc                   	int3   
  4133e1:	cc                   	int3   
  4133e2:	cc                   	int3   
  4133e3:	cc                   	int3   
  4133e4:	cc                   	int3   
  4133e5:	cc                   	int3   
  4133e6:	cc                   	int3   
  4133e7:	cc                   	int3   
  4133e8:	cc                   	int3   
  4133e9:	cc                   	int3   
  4133ea:	cc                   	int3   
  4133eb:	cc                   	int3   
  4133ec:	cc                   	int3   
  4133ed:	cc                   	int3   
  4133ee:	cc                   	int3   
  4133ef:	cc                   	int3   
  4133f0:	cc                   	int3   
  4133f1:	cc                   	int3   
  4133f2:	cc                   	int3   
  4133f3:	cc                   	int3   
  4133f4:	cc                   	int3   
  4133f5:	cc                   	int3   
  4133f6:	cc                   	int3   
  4133f7:	cc                   	int3   
  4133f8:	cc                   	int3   
  4133f9:	cc                   	int3   
  4133fa:	cc                   	int3   
  4133fb:	cc                   	int3   
  4133fc:	cc                   	int3   
  4133fd:	cc                   	int3   
  4133fe:	cc                   	int3   
  4133ff:	cc                   	int3   
  413400:	cc                   	int3   
  413401:	cc                   	int3   
  413402:	cc                   	int3   
  413403:	cc                   	int3   
  413404:	cc                   	int3   
  413405:	cc                   	int3   
  413406:	cc                   	int3   
  413407:	cc                   	int3   
  413408:	cc                   	int3   
  413409:	cc                   	int3   
  41340a:	cc                   	int3   
  41340b:	cc                   	int3   
  41340c:	cc                   	int3   
  41340d:	cc                   	int3   
  41340e:	cc                   	int3   
  41340f:	cc                   	int3   
  413410:	cc                   	int3   
  413411:	cc                   	int3   
  413412:	cc                   	int3   
  413413:	cc                   	int3   
  413414:	cc                   	int3   
  413415:	cc                   	int3   
  413416:	cc                   	int3   
  413417:	cc                   	int3   
  413418:	cc                   	int3   
  413419:	cc                   	int3   
  41341a:	cc                   	int3   
  41341b:	cc                   	int3   
  41341c:	cc                   	int3   
  41341d:	cc                   	int3   
  41341e:	cc                   	int3   
  41341f:	cc                   	int3   
  413420:	cc                   	int3   
  413421:	cc                   	int3   
  413422:	cc                   	int3   
  413423:	cc                   	int3   
  413424:	cc                   	int3   
  413425:	cc                   	int3   
  413426:	cc                   	int3   
  413427:	cc                   	int3   
  413428:	cc                   	int3   
  413429:	cc                   	int3   
  41342a:	cc                   	int3   
  41342b:	cc                   	int3   
  41342c:	cc                   	int3   
  41342d:	cc                   	int3   
  41342e:	cc                   	int3   
  41342f:	cc                   	int3   
  413430:	cc                   	int3   
  413431:	cc                   	int3   
  413432:	cc                   	int3   
  413433:	cc                   	int3   
  413434:	cc                   	int3   
  413435:	cc                   	int3   
  413436:	cc                   	int3   
  413437:	cc                   	int3   
  413438:	cc                   	int3   
  413439:	cc                   	int3   
  41343a:	cc                   	int3   
  41343b:	cc                   	int3   
  41343c:	cc                   	int3   
  41343d:	cc                   	int3   
  41343e:	cc                   	int3   
  41343f:	cc                   	int3   
  413440:	cc                   	int3   
  413441:	cc                   	int3   
  413442:	cc                   	int3   
  413443:	cc                   	int3   
  413444:	cc                   	int3   
  413445:	cc                   	int3   
  413446:	cc                   	int3   
  413447:	cc                   	int3   
  413448:	cc                   	int3   
  413449:	cc                   	int3   
  41344a:	cc                   	int3   
  41344b:	cc                   	int3   
  41344c:	cc                   	int3   
  41344d:	cc                   	int3   
  41344e:	cc                   	int3   
  41344f:	cc                   	int3   
  413450:	cc                   	int3   
  413451:	cc                   	int3   
  413452:	cc                   	int3   
  413453:	cc                   	int3   
  413454:	cc                   	int3   
  413455:	cc                   	int3   
  413456:	cc                   	int3   
  413457:	cc                   	int3   
  413458:	cc                   	int3   
  413459:	cc                   	int3   
  41345a:	cc                   	int3   
  41345b:	cc                   	int3   
  41345c:	cc                   	int3   
  41345d:	cc                   	int3   
  41345e:	cc                   	int3   
  41345f:	cc                   	int3   
  413460:	cc                   	int3   
  413461:	cc                   	int3   
  413462:	cc                   	int3   
  413463:	cc                   	int3   
  413464:	cc                   	int3   
  413465:	cc                   	int3   
  413466:	cc                   	int3   
  413467:	cc                   	int3   
  413468:	cc                   	int3   
  413469:	cc                   	int3   
  41346a:	cc                   	int3   
  41346b:	cc                   	int3   
  41346c:	cc                   	int3   
  41346d:	cc                   	int3   
  41346e:	cc                   	int3   
  41346f:	cc                   	int3   
  413470:	cc                   	int3   
  413471:	cc                   	int3   
  413472:	cc                   	int3   
  413473:	cc                   	int3   
  413474:	cc                   	int3   
  413475:	cc                   	int3   
  413476:	cc                   	int3   
  413477:	cc                   	int3   
  413478:	cc                   	int3   
  413479:	cc                   	int3   
  41347a:	cc                   	int3   
  41347b:	cc                   	int3   
  41347c:	cc                   	int3   
  41347d:	cc                   	int3   
  41347e:	cc                   	int3   
  41347f:	cc                   	int3   
  413480:	cc                   	int3   
  413481:	cc                   	int3   
  413482:	cc                   	int3   
